(lp0
S'Suu4_chi1_HTHT'
p1
aS'Suu4_chi1p5_HTHT'
p2
aS'Suu5_chi1_HTHT'
p3
aS'Suu5_chi1p5_HTHT'
p4
aS'Suu5_chi2_HTHT'
p5
aS'Suu6_chi1_HTHT'
p6
aS'Suu6_chi1p5_HTHT'
p7
aS'Suu6_chi2_HTHT'
p8
aS'Suu6_chi2p5_HTHT'
p9
aS'Suu7_chi1_HTHT'
p10
aS'Suu7_chi1p5_HTHT'
p11
aS'Suu7_chi2_HTHT'
p12
aS'Suu7_chi2p5_HTHT'
p13
aS'Suu7_chi3_HTHT'
p14
aS'Suu8_chi1_HTHT'
p15
aS'Suu8_chi1p5_HTHT'
p16
aS'Suu8_chi2_HTHT'
p17
aS'Suu8_chi2p5_HTHT'
p18
aS'Suu8_chi3_HTHT'
p19
aS'Suu4_chi1_HTZT'
p20
aS'Suu4_chi1p5_HTZT'
p21
aS'Suu5_chi1_HTZT'
p22
aS'Suu5_chi1p5_HTZT'
p23
aS'Suu5_chi2_HTZT'
p24
aS'Suu6_chi1_HTZT'
p25
aS'Suu6_chi1p5_HTZT'
p26
aS'Suu6_chi2p5_HTZT'
p27
aS'Suu7_chi1_HTZT'
p28
aS'Suu7_chi1p5_HTZT'
p29
aS'Suu7_chi2_HTZT'
p30
aS'Suu7_chi2p5_HTZT'
p31
aS'Suu7_chi3_HTZT'
p32
aS'Suu8_chi1_HTZT'
p33
aS'Suu8_chi1p5_HTZT'
p34
aS'Suu8_chi2_HTZT'
p35
aS'Suu8_chi2p5_HTZT'
p36
aS'Suu8_chi3_HTZT'
p37
aS'Suu4_chi1_WBHT'
p38
aS'Suu4_chi1p5_WBHT'
p39
aS'Suu5_chi1_WBHT'
p40
aS'Suu5_chi1p5_WBHT'
p41
aS'Suu5_chi2_WBHT'
p42
aS'Suu6_chi1_WBHT'
p43
aS'Suu6_chi1p5_WBHT'
p44
aS'Suu6_chi2_WBHT'
p45
aS'Suu6_chi2p5_WBHT'
p46
aS'Suu7_chi1_WBHT'
p47
aS'Suu7_chi1p5_WBHT'
p48
aS'Suu7_chi2_WBHT'
p49
aS'Suu7_chi2p5_WBHT'
p50
aS'Suu7_chi3_WBHT'
p51
aS'Suu8_chi1_WBHT'
p52
aS'Suu8_chi1p5_WBHT'
p53
aS'Suu8_chi2_WBHT'
p54
aS'Suu8_chi2p5_WBHT'
p55
aS'Suu8_chi3_WBHT'
p56
aS'Suu4_chi1_WBWB'
p57
aS'Suu4_chi1p5_WBWB'
p58
aS'Suu5_chi1_WBWB'
p59
aS'Suu5_chi1p5_WBWB'
p60
aS'Suu5_chi2_WBWB'
p61
aS'Suu6_chi1_WBWB'
p62
aS'Suu6_chi1p5_WBWB'
p63
aS'Suu6_chi2_WBWB'
p64
aS'Suu6_chi2p5_WBWB'
p65
aS'Suu7_chi1_WBWB'
p66
aS'Suu7_chi1p5_WBWB'
p67
aS'Suu7_chi2_WBWB'
p68
aS'Suu7_chi2p5_WBWB'
p69
aS'Suu7_chi3_WBWB'
p70
aS'Suu8_chi1_WBWB'
p71
aS'Suu8_chi1p5_WBWB'
p72
aS'Suu8_chi2_WBWB'
p73
aS'Suu8_chi2p5_WBWB'
p74
aS'Suu8_chi3_WBWB'
p75
aS'Suu4_chi1_WBZT'
p76
aS'Suu4_chi1p5_WBZT'
p77
aS'Suu5_chi1_WBZT'
p78
aS'Suu5_chi1p5_WBZT'
p79
aS'Suu5_chi2_WBZT'
p80
aS'Suu6_chi1_WBZT'
p81
aS'Suu6_chi1p5_WBZT'
p82
aS'Suu6_chi2_WBZT'
p83
aS'Suu6_chi2p5_WBZT'
p84
aS'Suu7_chi1_WBZT'
p85
aS'Suu7_chi1p5_WBZT'
p86
aS'Suu7_chi2_WBZT'
p87
aS'Suu7_chi2p5_WBZT'
p88
aS'Suu7_chi3_WBZT'
p89
aS'Suu8_chi1_WBZT'
p90
aS'Suu8_chi1p5_WBZT'
p91
aS'Suu8_chi2_WBZT'
p92
aS'Suu8_chi2p5_WBZT'
p93
aS'Suu8_chi3_WBZT'
p94
aS'Suu4_chi1_ZTZT'
p95
aS'Suu4_chi1p5_ZTZT'
p96
aS'Suu5_chi1_ZTZT'
p97
aS'Suu5_chi1p5_ZTZT'
p98
aS'Suu5_chi2_ZTZT'
p99
aS'Suu6_chi1_ZTZT'
p100
aS'Suu6_chi1p5_ZTZT'
p101
aS'Suu6_chi2p5_ZTZT'
p102
aS'Suu7_chi1_ZTZT'
p103
aS'Suu7_chi1p5_ZTZT'
p104
aS'Suu7_chi2_ZTZT'
p105
aS'Suu7_chi2p5_ZTZT'
p106
aS'Suu7_chi3_ZTZT'
p107
aS'Suu8_chi1_ZTZT'
p108
aS'Suu8_chi1p5_ZTZT'
p109
aS'Suu8_chi2_ZTZT'
p110
aS'Suu8_chi2p5_ZTZT'
p111
a.