(dp0
S'2015'
p1
(dp2
S'Suu6_chi2_WBHT'
p3
S'/store/mc/RunIISummer20UL16MiniAODAPVv2/SuuToChiChiToHTHTToJets_MSuu-4000_MChi-1000_TuneCP5_13TeV-madgraph-pythia8/MINIAODSIM/106X_mcRun2_asymptotic_preVFP_v11-v1/60000/EF8D3226-9665-FF42-8F73-20E1B71B2703.root'
p4
sS'Suu8_chi2p5_WBWB'
p5
g4
sS'Suu6_chi2_WBWB'
p6
g4
sS'Suu4_chi1p5_WBWB'
p7
g4
sS'Suu7_chi1_WBZT'
p8
g4
sS'Suu8_chi2p5_HTHT'
p9
g4
sS'Suu8_chi3_WBWB'
p10
g4
sS'Suu6_chi1p5_WBWB'
p11
g4
sS'Suu6_chi1_WBZT'
p12
g4
sS'Suu7_chi3_WBHT'
p13
g4
sS'Suu4_chi1p5_HTZT'
p14
g4
sS'Suu8_chi1p5_WBZT'
p15
g4
sS'Suu7_chi1_ZTZT'
p16
g4
sS'Suu8_chi1_HTHT'
p17
g4
sS'Suu7_chi2_HTZT'
p18
g4
sS'Suu7_chi1p5_WBZT'
p19
g4
sS'Suu8_chi1_WBZT'
p20
g4
sS'Suu5_chi2_ZTZT'
p21
g4
sS'Suu8_chi2_ZTZT'
p22
g4
sS'Suu8_chi2p5_HTZT'
p23
g4
sS'Suu4_chi1p5_HTHT'
p24
g4
sS'Suu8_chi1_WBHT'
p25
g4
sS'Suu8_chi3_WBHT'
p26
g4
sS'Suu7_chi1_HTHT'
p27
g4
sS'Suu7_chi2p5_WBHT'
p28
g4
sS'Suu7_chi3_HTHT'
p29
g4
sS'Suu4_chi1_HTZT'
p30
g4
sS'Suu6_chi1_HTHT'
p31
g4
sS'Suu4_chi1_ZTZT'
p32
g4
sS'Suu5_chi1p5_HTZT'
p33
g4
sS'Suu5_chi1p5_WBHT'
p34
g4
sS'Suu7_chi3_WBZT'
p35
g4
sS'Suu6_chi2_HTHT'
p36
g4
sS'Suu6_chi1p5_ZTZT'
p37
g4
sS'Suu4_chi1p5_ZTZT'
p38
g4
sS'Suu8_chi2_HTZT'
p39
g4
sS'Suu8_chi3_HTZT'
p40
g4
sS'Suu6_chi2p5_ZTZT'
p41
g4
sS'Suu7_chi1_HTZT'
p42
g4
sS'Suu6_chi2p5_WBZT'
p43
g4
sS'Suu4_chi1p5_WBHT'
p44
g4
sS'Suu5_chi1p5_HTHT'
p45
g4
sS'Suu5_chi2_WBWB'
p46
g4
sS'Suu8_chi1_HTZT'
p47
g4
sS'Suu4_chi1_WBHT'
p48
g4
sS'Suu7_chi2p5_WBWB'
p49
g4
sS'Suu8_chi2_WBHT'
p50
g4
sS'Suu7_chi2p5_ZTZT'
p51
g4
sS'Suu5_chi1_WBZT'
p52
g4
sS'Suu5_chi1p5_WBWB'
p53
g4
sS'Suu8_chi1_ZTZT'
p54
g4
sS'Suu8_chi3_HTHT'
p55
g4
sS'Suu7_chi3_WBWB'
p56
g4
sS'Suu6_chi2p5_HTZT'
p57
g4
sS'Suu7_chi1_WBWB'
p58
g4
sS'Suu7_chi2p5_WBZT'
p59
g4
sS'Suu7_chi1p5_HTHT'
p60
g4
sS'Suu5_chi1_HTZT'
p61
g4
sS'Suu6_chi1p5_HTZT'
p62
g4
sS'Suu8_chi2p5_WBZT'
p63
g4
sS'Suu5_chi1_WBHT'
p64
g4
sS'Suu7_chi1p5_WBWB'
p65
g4
sS'Suu8_chi1p5_HTHT'
p66
g4
sS'Suu4_chi1_WBZT'
p67
g4
sS'Suu6_chi2p5_HTHT'
p68
g4
sS'Suu5_chi2_HTHT'
p69
g4
sS'Suu6_chi1p5_WBZT'
p70
g4
sS'Suu8_chi1_WBWB'
p71
g4
sS'Suu6_chi1_WBWB'
p72
g4
sS'Suu8_chi2_WBWB'
p73
g4
sS'Suu6_chi2p5_WBWB'
p74
g4
sS'Suu6_chi1_WBHT'
p75
g4
sS'Suu7_chi2p5_HTZT'
p76
g4
sS'Suu8_chi2p5_ZTZT'
p77
g4
sS'Suu5_chi2_WBHT'
p78
g4
sS'Suu8_chi2_HTHT'
p79
g4
sS'Suu7_chi2_HTHT'
p80
g4
sS'Suu7_chi2_WBZT'
p81
g4
sS'Suu4_chi1p5_WBZT'
p82
g4
sS'Suu8_chi1p5_HTZT'
p83
g4
sS'Suu7_chi1p5_WBHT'
p84
g4
sS'Suu4_chi1_HTHT'
p85
g4
sS'Suu7_chi2_WBHT'
p86
g4
sS'Suu6_chi1p5_HTHT'
p87
g4
sS'Suu6_chi1p5_WBHT'
p88
g4
sS'Suu7_chi2_WBWB'
p89
g4
sS'Suu8_chi2p5_WBHT'
p90
g4
sS'Suu7_chi1p5_HTZT'
p91
g4
sS'Suu4_chi1_WBWB'
p92
g4
sS'Suu5_chi2_HTZT'
p93
g4
sS'Suu5_chi1_HTHT'
p94
g4
sS'Suu8_chi2_WBZT'
p95
g4
sS'Suu5_chi1p5_WBZT'
p96
g4
sS'Suu5_chi1_ZTZT'
p97
g4
sS'Suu7_chi1_WBHT'
p98
g4
sS'Suu5_chi1_WBWB'
p99
g4
sS'Suu5_chi2_WBZT'
p100
g4
sS'Suu7_chi2_ZTZT'
p101
g4
sS'Suu6_chi1_HTZT'
p102
g4
sS'Suu8_chi1p5_ZTZT'
p103
g4
sS'Suu7_chi3_HTZT'
p104
g4
sS'Suu7_chi3_ZTZT'
p105
g4
sS'Suu6_chi2p5_WBHT'
p106
g4
sS'Suu7_chi1p5_ZTZT'
p107
g4
sS'Suu8_chi3_WBZT'
p108
g4
sS'Suu6_chi1_ZTZT'
p109
g4
sS'Suu8_chi1p5_WBWB'
p110
g4
sS'Suu6_chi2_WBZT'
p111
g4
sS'Suu8_chi1p5_WBHT'
p112
g4
ssS'2017'
p113
(dp114
S'Suu6_chi2_WBHT'
p115
S'/store/mc/RunIISummer20UL17MiniAODv2/SuuToChiChiToHTHTToJets_MSuu-4000_MChi-1000_TuneCP5_13TeV-madgraph-pythia8/MINIAODSIM/106X_mc2017_realistic_v9-v3/50000/5734DEE6-8D26-704A-BFA9-E8976034C7F0.root'
p116
sS'Suu8_chi2p5_WBWB'
p117
g116
sS'Suu6_chi2_WBWB'
p118
g116
sS'Suu4_chi1p5_WBWB'
p119
g116
sS'Suu7_chi1_WBZT'
p120
g116
sS'Suu8_chi2p5_HTHT'
p121
g116
sS'Suu8_chi3_WBWB'
p122
g116
sS'Suu6_chi1p5_WBWB'
p123
g116
sS'Suu6_chi1_WBZT'
p124
g116
sS'Suu7_chi3_WBHT'
p125
g116
sS'Suu4_chi1p5_HTZT'
p126
g116
sS'Suu8_chi1p5_WBZT'
p127
g116
sS'Suu7_chi1_ZTZT'
p128
g116
sS'Suu8_chi1_HTHT'
p129
g116
sS'Suu7_chi2_HTZT'
p130
g116
sS'Suu7_chi1p5_WBZT'
p131
g116
sS'Suu8_chi1_WBZT'
p132
g116
sS'Suu5_chi2_ZTZT'
p133
g116
sS'Suu8_chi2_ZTZT'
p134
g116
sS'Suu8_chi2p5_HTZT'
p135
g116
sS'Suu4_chi1p5_HTHT'
p136
g116
sS'Suu8_chi1_WBHT'
p137
g116
sS'Suu8_chi3_WBHT'
p138
g116
sS'Suu7_chi1_HTHT'
p139
g116
sS'Suu7_chi2p5_WBHT'
p140
g116
sS'Suu7_chi3_HTHT'
p141
g116
sS'Suu4_chi1_HTZT'
p142
g116
sS'Suu6_chi1_HTHT'
p143
g116
sS'Suu4_chi1_ZTZT'
p144
g116
sS'Suu5_chi1p5_HTZT'
p145
g116
sS'Suu5_chi1p5_WBHT'
p146
g116
sS'Suu7_chi3_WBZT'
p147
g116
sS'Suu6_chi2_HTHT'
p148
g116
sS'Suu6_chi1p5_ZTZT'
p149
g116
sS'Suu4_chi1p5_ZTZT'
p150
g116
sS'Suu8_chi2_HTZT'
p151
g116
sS'Suu8_chi3_HTZT'
p152
g116
sS'Suu6_chi2p5_ZTZT'
p153
g116
sS'Suu7_chi1_HTZT'
p154
g116
sS'Suu6_chi2p5_WBZT'
p155
g116
sS'Suu4_chi1p5_WBHT'
p156
g116
sS'Suu5_chi1p5_HTHT'
p157
g116
sS'Suu5_chi2_WBWB'
p158
g116
sS'Suu8_chi1_HTZT'
p159
g116
sS'Suu4_chi1_WBHT'
p160
g116
sS'Suu7_chi2p5_WBWB'
p161
g116
sS'Suu8_chi2_WBHT'
p162
g116
sS'Suu7_chi2p5_ZTZT'
p163
g116
sS'Suu5_chi1_WBZT'
p164
g116
sS'Suu5_chi1p5_WBWB'
p165
g116
sS'Suu8_chi1_ZTZT'
p166
g116
sS'Suu8_chi3_HTHT'
p167
g116
sS'Suu7_chi3_WBWB'
p168
g116
sS'Suu6_chi2p5_HTZT'
p169
g116
sS'Suu7_chi1_WBWB'
p170
g116
sS'Suu7_chi2p5_WBZT'
p171
g116
sS'Suu7_chi1p5_HTHT'
p172
g116
sS'Suu5_chi1_HTZT'
p173
g116
sS'Suu6_chi1p5_HTZT'
p174
g116
sS'Suu8_chi2p5_WBZT'
p175
g116
sS'Suu5_chi1_WBHT'
p176
g116
sS'Suu7_chi1p5_WBWB'
p177
g116
sS'Suu8_chi1p5_HTHT'
p178
g116
sS'Suu4_chi1_WBZT'
p179
g116
sS'Suu6_chi2p5_HTHT'
p180
g116
sS'Suu5_chi2_HTHT'
p181
g116
sS'Suu6_chi1p5_WBZT'
p182
g116
sS'Suu8_chi1_WBWB'
p183
g116
sS'Suu6_chi1_WBWB'
p184
g116
sS'Suu8_chi2_WBWB'
p185
g116
sS'Suu6_chi2p5_WBWB'
p186
g116
sS'Suu6_chi1_WBHT'
p187
g116
sS'Suu7_chi2p5_HTZT'
p188
g116
sS'Suu8_chi2p5_ZTZT'
p189
g116
sS'Suu5_chi2_WBHT'
p190
g116
sS'Suu8_chi2_HTHT'
p191
g116
sS'Suu7_chi2_HTHT'
p192
g116
sS'Suu7_chi2_WBZT'
p193
g116
sS'Suu4_chi1p5_WBZT'
p194
g116
sS'Suu8_chi1p5_HTZT'
p195
g116
sS'Suu7_chi1p5_WBHT'
p196
g116
sS'Suu4_chi1_HTHT'
p197
g116
sS'Suu7_chi2_WBHT'
p198
g116
sS'Suu6_chi1p5_HTHT'
p199
g116
sS'Suu6_chi1p5_WBHT'
p200
g116
sS'Suu7_chi2_WBWB'
p201
g116
sS'Suu8_chi2p5_WBHT'
p202
g116
sS'Suu7_chi1p5_HTZT'
p203
g116
sS'Suu4_chi1_WBWB'
p204
g116
sS'Suu5_chi1_HTHT'
p205
g116
sS'Suu8_chi2_WBZT'
p206
g116
sS'Suu5_chi1p5_WBZT'
p207
g116
sS'Suu5_chi1_ZTZT'
p208
g116
sS'Suu7_chi1_WBHT'
p209
g116
sS'Suu5_chi1_WBWB'
p210
g116
sS'Suu5_chi2_WBZT'
p211
g116
sS'Suu7_chi2_ZTZT'
p212
g116
sS'Suu6_chi1_HTZT'
p213
g116
sS'Suu8_chi1p5_ZTZT'
p214
g116
sS'Suu7_chi3_HTZT'
p215
g116
sS'Suu7_chi3_ZTZT'
p216
g116
sS'Suu6_chi2p5_WBHT'
p217
g116
sS'Suu7_chi1p5_ZTZT'
p218
g116
sS'Suu8_chi3_WBZT'
p219
g116
sS'Suu6_chi1_ZTZT'
p220
g116
sS'Suu8_chi1p5_WBWB'
p221
g116
sS'Suu6_chi2_WBZT'
p222
g116
sS'Suu8_chi1p5_WBHT'
p223
g116
ssS'2016'
p224
(dp225
S'Suu6_chi2_WBHT'
p226
S'/store/mc/RunIISummer20UL16MiniAODv2/SuuToChiChiToHTHTToJets_MSuu-4000_MChi-1000_TuneCP5_13TeV-madgraph-pythia8/MINIAODSIM/106X_mcRun2_asymptotic_v17-v1/2550000/AC2EE404-F819-CE4D-AB22-7BE35E278E18.root'
p227
sS'Suu8_chi2p5_WBWB'
p228
g227
sS'Suu6_chi2_WBWB'
p229
g227
sS'Suu4_chi1p5_WBWB'
p230
g227
sS'Suu7_chi1_WBZT'
p231
g227
sS'Suu8_chi2p5_HTHT'
p232
g227
sS'Suu8_chi3_WBWB'
p233
g227
sS'Suu6_chi1p5_WBWB'
p234
g227
sS'Suu6_chi1_WBZT'
p235
g227
sS'Suu7_chi3_WBHT'
p236
g227
sS'Suu4_chi1p5_HTZT'
p237
g227
sS'Suu8_chi1p5_WBZT'
p238
g227
sS'Suu7_chi1_ZTZT'
p239
g227
sS'Suu8_chi1_HTHT'
p240
g227
sS'Suu7_chi2_HTZT'
p241
g227
sS'Suu7_chi1p5_WBZT'
p242
g227
sS'Suu8_chi1_WBZT'
p243
g227
sS'Suu5_chi2_ZTZT'
p244
g227
sS'Suu8_chi2_ZTZT'
p245
g227
sS'Suu8_chi2p5_HTZT'
p246
g227
sS'Suu4_chi1p5_HTHT'
p247
g227
sS'Suu8_chi1_WBHT'
p248
g227
sS'Suu8_chi3_WBHT'
p249
g227
sS'Suu7_chi1_HTHT'
p250
g227
sS'Suu7_chi2p5_WBHT'
p251
g227
sS'Suu7_chi3_HTHT'
p252
g227
sS'Suu4_chi1_HTZT'
p253
g227
sS'Suu6_chi1_HTHT'
p254
g227
sS'Suu4_chi1_ZTZT'
p255
g227
sS'Suu5_chi1p5_HTZT'
p256
g227
sS'Suu5_chi1p5_WBHT'
p257
g227
sS'Suu7_chi3_WBZT'
p258
g227
sS'Suu6_chi2_HTHT'
p259
g227
sS'Suu5_chi1p5_ZTZT'
p260
g227
sS'Suu6_chi1p5_ZTZT'
p261
g227
sS'Suu4_chi1p5_ZTZT'
p262
g227
sS'Suu8_chi2_HTZT'
p263
g227
sS'Suu8_chi3_HTZT'
p264
g227
sS'Suu6_chi2p5_ZTZT'
p265
g227
sS'Suu7_chi1_HTZT'
p266
g227
sS'Suu6_chi2p5_WBZT'
p267
g227
sS'Suu4_chi1p5_WBHT'
p268
g227
sS'Suu5_chi1p5_HTHT'
p269
g227
sS'Suu5_chi2_WBWB'
p270
g227
sS'Suu8_chi1_HTZT'
p271
g227
sS'Suu4_chi1_WBHT'
p272
g227
sS'Suu7_chi2p5_WBWB'
p273
g227
sS'Suu8_chi2_WBHT'
p274
g227
sS'Suu7_chi2p5_ZTZT'
p275
g227
sS'Suu5_chi1_WBZT'
p276
g227
sS'Suu5_chi1p5_WBWB'
p277
g227
sS'Suu8_chi1_ZTZT'
p278
g227
sS'Suu8_chi3_HTHT'
p279
g227
sS'Suu7_chi3_WBWB'
p280
g227
sS'Suu6_chi2p5_HTZT'
p281
g227
sS'Suu7_chi1_WBWB'
p282
g227
sS'Suu7_chi2p5_WBZT'
p283
g227
sS'Suu7_chi1p5_HTHT'
p284
g227
sS'Suu5_chi1_HTZT'
p285
g227
sS'Suu6_chi1p5_HTZT'
p286
g227
sS'Suu8_chi2p5_WBZT'
p287
g227
sS'Suu5_chi1_WBHT'
p288
g227
sS'Suu7_chi1p5_WBWB'
p289
g227
sS'Suu8_chi1p5_HTHT'
p290
g227
sS'Suu4_chi1_WBZT'
p291
g227
sS'Suu6_chi2p5_HTHT'
p292
g227
sS'Suu5_chi2_HTHT'
p293
g227
sS'Suu6_chi1p5_WBZT'
p294
g227
sS'Suu8_chi1_WBWB'
p295
g227
sS'Suu6_chi1_WBWB'
p296
g227
sS'Suu8_chi2_WBWB'
p297
g227
sS'Suu6_chi2p5_WBWB'
p298
g227
sS'Suu6_chi1_WBHT'
p299
g227
sS'Suu7_chi2p5_HTZT'
p300
g227
sS'Suu8_chi2p5_ZTZT'
p301
g227
sS'Suu5_chi2_WBHT'
p302
g227
sS'Suu8_chi2_HTHT'
p303
g227
sS'Suu7_chi2_HTHT'
p304
g227
sS'Suu7_chi2_WBZT'
p305
g227
sS'Suu4_chi1p5_WBZT'
p306
g227
sS'Suu8_chi1p5_HTZT'
p307
g227
sS'Suu7_chi1p5_WBHT'
p308
g227
sS'Suu4_chi1_HTHT'
p309
g227
sS'Suu7_chi2_WBHT'
p310
g227
sS'Suu6_chi1p5_HTHT'
p311
g227
sS'Suu6_chi1p5_WBHT'
p312
g227
sS'Suu7_chi2_WBWB'
p313
g227
sS'Suu8_chi2p5_WBHT'
p314
g227
sS'Suu7_chi1p5_HTZT'
p315
g227
sS'Suu4_chi1_WBWB'
p316
g227
sS'Suu5_chi1_HTHT'
p317
g227
sS'Suu8_chi2_WBZT'
p318
g227
sS'Suu5_chi1p5_WBZT'
p319
g227
sS'Suu5_chi1_ZTZT'
p320
g227
sS'Suu7_chi1_WBHT'
p321
g227
sS'Suu5_chi1_WBWB'
p322
g227
sS'Suu5_chi2_WBZT'
p323
g227
sS'Suu7_chi2p5_HTHT'
p324
g227
sS'Suu7_chi2_ZTZT'
p325
g227
sS'Suu6_chi1_HTZT'
p326
g227
sS'Suu8_chi1p5_ZTZT'
p327
g227
sS'Suu7_chi3_HTZT'
p328
g227
sS'Suu7_chi3_ZTZT'
p329
g227
sS'Suu6_chi2p5_WBHT'
p330
g227
sS'Suu7_chi1p5_ZTZT'
p331
g227
sS'Suu8_chi3_WBZT'
p332
g227
sS'Suu6_chi1_ZTZT'
p333
g227
sS'Suu8_chi1p5_WBWB'
p334
g227
sS'Suu6_chi2_WBZT'
p335
g227
sS'Suu8_chi1p5_WBHT'
p336
g227
ssS'2018'
p337
(dp338
S'Suu6_chi2_WBHT'
p339
S'/store/mc/RunIISummer20UL18MiniAODv2/SuuToChiChiToHTHTToJets_MSuu-4000_MChi-1000_TuneCP5_13TeV-madgraph-pythia8/MINIAODSIM/106X_upgrade2018_realistic_v16_L1v1-v1/2550000/73C711C9-0871-1143-9C3E-D2EA21C33C71.root'
p340
sS'Suu8_chi2p5_WBWB'
p341
g340
sS'Suu6_chi2_WBWB'
p342
g340
sS'Suu4_chi1p5_WBWB'
p343
g340
sS'Suu7_chi1_WBZT'
p344
g340
sS'Suu8_chi2p5_HTHT'
p345
g340
sS'Suu8_chi3_WBWB'
p346
g340
sS'Suu6_chi1p5_WBWB'
p347
g340
sS'Suu6_chi1_WBZT'
p348
g340
sS'Suu7_chi3_WBHT'
p349
g340
sS'Suu4_chi1p5_HTZT'
p350
g340
sS'Suu8_chi1p5_WBZT'
p351
g340
sS'Suu7_chi1_ZTZT'
p352
g340
sS'Suu8_chi1_HTHT'
p353
g340
sS'Suu7_chi2_HTZT'
p354
g340
sS'Suu7_chi1p5_WBZT'
p355
g340
sS'Suu8_chi1_WBZT'
p356
g340
sS'Suu8_chi2_ZTZT'
p357
g340
sS'Suu8_chi2p5_HTZT'
p358
g340
sS'Suu4_chi1p5_HTHT'
p359
g340
sS'Suu8_chi1_WBHT'
p360
g340
sS'Suu8_chi3_WBHT'
p361
g340
sS'Suu7_chi1_HTHT'
p362
g340
sS'Suu7_chi2p5_WBHT'
p363
g340
sS'Suu7_chi3_HTHT'
p364
g340
sS'Suu4_chi1_HTZT'
p365
g340
sS'Suu6_chi1_HTHT'
p366
g340
sS'Suu4_chi1_ZTZT'
p367
g340
sS'Suu5_chi1p5_HTZT'
p368
g340
sS'Suu5_chi1p5_WBHT'
p369
g340
sS'Suu7_chi3_WBZT'
p370
g340
sS'Suu6_chi2_HTHT'
p371
g340
sS'Suu6_chi1p5_ZTZT'
p372
g340
sS'Suu4_chi1p5_ZTZT'
p373
g340
sS'Suu8_chi2_HTZT'
p374
g340
sS'Suu8_chi3_HTZT'
p375
g340
sS'Suu6_chi2p5_ZTZT'
p376
g340
sS'Suu7_chi1_HTZT'
p377
g340
sS'Suu6_chi2p5_WBZT'
p378
g340
sS'Suu4_chi1p5_WBHT'
p379
g340
sS'Suu5_chi1p5_HTHT'
p380
g340
sS'Suu5_chi2_WBWB'
p381
g340
sS'Suu8_chi1_HTZT'
p382
g340
sS'Suu4_chi1_WBHT'
p383
g340
sS'Suu7_chi2p5_WBWB'
p384
g340
sS'Suu8_chi2_WBHT'
p385
g340
sS'Suu7_chi2p5_ZTZT'
p386
g340
sS'Suu5_chi1_WBZT'
p387
g340
sS'Suu5_chi1p5_WBWB'
p388
g340
sS'Suu8_chi1_ZTZT'
p389
g340
sS'Suu8_chi3_HTHT'
p390
g340
sS'Suu7_chi3_WBWB'
p391
g340
sS'Suu6_chi2p5_HTZT'
p392
g340
sS'Suu7_chi1_WBWB'
p393
g340
sS'Suu7_chi2p5_WBZT'
p394
g340
sS'Suu7_chi1p5_HTHT'
p395
g340
sS'Suu5_chi1_HTZT'
p396
g340
sS'Suu6_chi1p5_HTZT'
p397
g340
sS'Suu8_chi2p5_WBZT'
p398
g340
sS'Suu5_chi1_WBHT'
p399
g340
sS'Suu7_chi1p5_WBWB'
p400
g340
sS'Suu8_chi1p5_HTHT'
p401
g340
sS'Suu4_chi1_WBZT'
p402
g340
sS'Suu6_chi2p5_HTHT'
p403
g340
sS'Suu5_chi2_HTHT'
p404
g340
sS'Suu6_chi1p5_WBZT'
p405
g340
sS'Suu8_chi1_WBWB'
p406
g340
sS'Suu6_chi1_WBWB'
p407
g340
sS'Suu8_chi2_WBWB'
p408
g340
sS'Suu6_chi2p5_WBWB'
p409
g340
sS'Suu6_chi1_WBHT'
p410
g340
sS'Suu8_chi2p5_ZTZT'
p411
g340
sS'Suu5_chi2_WBHT'
p412
g340
sS'Suu8_chi2_HTHT'
p413
g340
sS'Suu7_chi2_HTHT'
p414
g340
sS'Suu7_chi2_WBZT'
p415
g340
sS'Suu4_chi1p5_WBZT'
p416
g340
sS'Suu8_chi1p5_HTZT'
p417
g340
sS'Suu7_chi1p5_WBHT'
p418
g340
sS'Suu4_chi1_HTHT'
p419
g340
sS'Suu7_chi2_WBHT'
p420
g340
sS'Suu6_chi1p5_HTHT'
p421
g340
sS'Suu6_chi1p5_WBHT'
p422
g340
sS'Suu7_chi2_WBWB'
p423
g340
sS'Suu8_chi2p5_WBHT'
p424
g340
sS'Suu7_chi1p5_HTZT'
p425
g340
sS'Suu4_chi1_WBWB'
p426
g340
sS'Suu5_chi1_HTHT'
p427
g340
sS'Suu8_chi2_WBZT'
p428
g340
sS'Suu5_chi1p5_WBZT'
p429
g340
sS'Suu5_chi1_ZTZT'
p430
g340
sS'Suu7_chi1_WBHT'
p431
g340
sS'Suu5_chi1_WBWB'
p432
g340
sS'Suu5_chi2_WBZT'
p433
g340
sS'Suu7_chi2_ZTZT'
p434
g340
sS'Suu6_chi1_HTZT'
p435
g340
sS'Suu8_chi1p5_ZTZT'
p436
g340
sS'Suu7_chi3_HTZT'
p437
g340
sS'Suu7_chi3_ZTZT'
p438
g340
sS'Suu6_chi2p5_WBHT'
p439
g340
sS'Suu7_chi1p5_ZTZT'
p440
g340
sS'Suu8_chi3_WBZT'
p441
g340
sS'Suu6_chi1_ZTZT'
p442
g340
sS'Suu8_chi1p5_WBWB'
p443
g340
sS'Suu6_chi2_WBZT'
p444
g340
sS'Suu8_chi1p5_WBHT'
p445
g340
ss.