(dp0
S'2015'
p1
(dp2
S'Suu6_chi2_WBHT'
p3
(dp4
S'JER'
p5
(lp6
sS'JEC'
p7
(lp8
sS'nom'
p9
(lp10
ssS'Suu8_chi2p5_WBWB'
p11
(dp12
g5
(lp13
sg7
(lp14
sg9
(lp15
ssS'Suu6_chi2_WBWB'
p16
(dp17
g5
(lp18
sg7
(lp19
sg9
(lp20
ssS'Suu4_chi1p5_WBWB'
p21
(dp22
g5
(lp23
sg7
(lp24
sg9
(lp25
ssS'Suu7_chi1_WBZT'
p26
(dp27
g5
(lp28
sg7
(lp29
sg9
(lp30
ssS'Suu8_chi2p5_HTHT'
p31
(dp32
g5
(lp33
sg7
(lp34
sg9
(lp35
ssS'Suu8_chi3_WBWB'
p36
(dp37
g5
(lp38
sg7
(lp39
sg9
(lp40
ssS'Suu6_chi1p5_WBWB'
p41
(dp42
g5
(lp43
sg7
(lp44
sg9
(lp45
ssS'Suu6_chi1_WBZT'
p46
(dp47
g5
(lp48
sg7
(lp49
sg9
(lp50
ssS'Suu7_chi3_WBHT'
p51
(dp52
g5
(lp53
sg7
(lp54
sg9
(lp55
ssS'Suu4_chi1p5_HTZT'
p56
(dp57
g5
(lp58
sg7
(lp59
sg9
(lp60
ssS'Suu8_chi1p5_WBZT'
p61
(dp62
g5
(lp63
sg7
(lp64
sg9
(lp65
ssS'Suu7_chi1_ZTZT'
p66
(dp67
g5
(lp68
sg7
(lp69
sg9
(lp70
ssS'Suu8_chi1_HTHT'
p71
(dp72
g5
(lp73
sg7
(lp74
sg9
(lp75
ssS'Suu7_chi2_HTZT'
p76
(dp77
g5
(lp78
sg7
(lp79
sg9
(lp80
ssS'Suu7_chi1p5_WBZT'
p81
(dp82
g5
(lp83
sg7
(lp84
sg9
(lp85
ssS'Suu8_chi1_WBZT'
p86
(dp87
g5
(lp88
sg7
(lp89
sg9
(lp90
ssS'Suu5_chi2_ZTZT'
p91
(dp92
g5
(lp93
sg7
(lp94
sg9
(lp95
ssS'Suu8_chi2_ZTZT'
p96
(dp97
g5
(lp98
sg7
(lp99
sg9
(lp100
ssS'Suu8_chi2p5_HTZT'
p101
(dp102
g5
(lp103
sg7
(lp104
sg9
(lp105
ssS'Suu4_chi1p5_HTHT'
p106
(dp107
g5
(lp108
sg7
(lp109
sg9
(lp110
ssS'Suu8_chi1_WBHT'
p111
(dp112
g5
(lp113
sg7
(lp114
sg9
(lp115
ssS'Suu8_chi3_WBHT'
p116
(dp117
g5
(lp118
sg7
(lp119
sg9
(lp120
ssS'Suu7_chi1_HTHT'
p121
(dp122
g5
(lp123
sg7
(lp124
sg9
(lp125
ssS'Suu7_chi2p5_WBHT'
p126
(dp127
g5
(lp128
sg7
(lp129
sg9
(lp130
ssS'Suu7_chi3_HTHT'
p131
(dp132
g5
(lp133
sg7
(lp134
sg9
(lp135
ssS'Suu4_chi1_HTZT'
p136
(dp137
g5
(lp138
sg7
(lp139
sg9
(lp140
ssS'Suu6_chi1_HTHT'
p141
(dp142
g5
(lp143
sg7
(lp144
sg9
(lp145
ssS'Suu4_chi1_ZTZT'
p146
(dp147
g5
(lp148
sg7
(lp149
sg9
(lp150
ssS'Suu5_chi1p5_HTZT'
p151
(dp152
g5
(lp153
sg7
(lp154
sg9
(lp155
ssS'Suu5_chi1p5_WBHT'
p156
(dp157
g5
(lp158
sg7
(lp159
sg9
(lp160
ssS'Suu7_chi3_WBZT'
p161
(dp162
g5
(lp163
sg7
(lp164
sg9
(lp165
ssS'Suu6_chi2_HTHT'
p166
(dp167
g5
(lp168
sg7
(lp169
sg9
(lp170
ssS'Suu6_chi1p5_ZTZT'
p171
(dp172
g5
(lp173
sg7
(lp174
sg9
(lp175
ssS'Suu4_chi1p5_ZTZT'
p176
(dp177
g5
(lp178
sg7
(lp179
sg9
(lp180
ssS'Suu8_chi2_HTZT'
p181
(dp182
g5
(lp183
sg7
(lp184
sg9
(lp185
ssS'Suu8_chi3_HTZT'
p186
(dp187
g5
(lp188
sg7
(lp189
sg9
(lp190
ssS'Suu6_chi2p5_ZTZT'
p191
(dp192
g5
(lp193
sg7
(lp194
sg9
(lp195
ssS'Suu7_chi1_HTZT'
p196
(dp197
g5
(lp198
sg7
(lp199
sg9
(lp200
ssS'Suu6_chi2p5_WBZT'
p201
(dp202
g5
(lp203
sg7
(lp204
sg9
(lp205
ssS'Suu4_chi1p5_WBHT'
p206
(dp207
g5
(lp208
sg7
(lp209
sg9
(lp210
ssS'Suu5_chi1p5_HTHT'
p211
(dp212
g5
(lp213
sg7
(lp214
sg9
(lp215
ssS'Suu5_chi2_WBWB'
p216
(dp217
g5
(lp218
sg7
(lp219
sg9
(lp220
ssS'Suu8_chi1_HTZT'
p221
(dp222
g5
(lp223
sg7
(lp224
sg9
(lp225
ssS'Suu4_chi1_WBHT'
p226
(dp227
g5
(lp228
sg7
(lp229
sg9
(lp230
ssS'Suu7_chi2p5_WBWB'
p231
(dp232
g5
(lp233
sg7
(lp234
sg9
(lp235
ssS'Suu8_chi2_WBHT'
p236
(dp237
g5
(lp238
sg7
(lp239
sg9
(lp240
ssS'Suu7_chi2p5_ZTZT'
p241
(dp242
g5
(lp243
sg7
(lp244
sg9
(lp245
ssS'Suu5_chi1_WBZT'
p246
(dp247
g5
(lp248
sg7
(lp249
sg9
(lp250
ssS'Suu5_chi1p5_WBWB'
p251
(dp252
g5
(lp253
sg7
(lp254
sg9
(lp255
ssS'Suu8_chi1_ZTZT'
p256
(dp257
g5
(lp258
sg7
(lp259
sg9
(lp260
ssS'Suu8_chi3_HTHT'
p261
(dp262
g5
(lp263
sg7
(lp264
sg9
(lp265
ssS'Suu7_chi3_WBWB'
p266
(dp267
g5
(lp268
sg7
(lp269
sg9
(lp270
ssS'Suu6_chi2p5_HTZT'
p271
(dp272
g5
(lp273
sg7
(lp274
sg9
(lp275
ssS'Suu7_chi1_WBWB'
p276
(dp277
g5
(lp278
sg7
(lp279
sg9
(lp280
ssS'Suu7_chi2p5_WBZT'
p281
(dp282
g5
(lp283
sg7
(lp284
sg9
(lp285
ssS'Suu7_chi1p5_HTHT'
p286
(dp287
g5
(lp288
sg7
(lp289
sg9
(lp290
ssS'Suu5_chi1_HTZT'
p291
(dp292
g5
(lp293
sg7
(lp294
sg9
(lp295
ssS'Suu6_chi1p5_HTZT'
p296
(dp297
g5
(lp298
sg7
(lp299
sg9
(lp300
ssS'Suu8_chi2p5_WBZT'
p301
(dp302
g5
(lp303
sg7
(lp304
sg9
(lp305
ssS'Suu5_chi1_WBHT'
p306
(dp307
g5
(lp308
sg7
(lp309
sg9
(lp310
ssS'Suu7_chi1p5_WBWB'
p311
(dp312
g5
(lp313
sg7
(lp314
sg9
(lp315
ssS'Suu8_chi1p5_HTHT'
p316
(dp317
g5
(lp318
sg7
(lp319
sg9
(lp320
ssS'Suu4_chi1_WBZT'
p321
(dp322
g5
(lp323
sg7
(lp324
sg9
(lp325
ssS'Suu6_chi2p5_HTHT'
p326
(dp327
g5
(lp328
sg7
(lp329
sg9
(lp330
ssS'Suu5_chi2_HTHT'
p331
(dp332
g5
(lp333
sg7
(lp334
sg9
(lp335
ssS'Suu6_chi1p5_WBZT'
p336
(dp337
g5
(lp338
sg7
(lp339
sg9
(lp340
ssS'Suu8_chi1_WBWB'
p341
(dp342
g5
(lp343
sg7
(lp344
sg9
(lp345
ssS'Suu6_chi1_WBWB'
p346
(dp347
g5
(lp348
sg7
(lp349
sg9
(lp350
ssS'Suu8_chi2_WBWB'
p351
(dp352
g5
(lp353
sg7
(lp354
sg9
(lp355
ssS'Suu6_chi2p5_WBWB'
p356
(dp357
g5
(lp358
sg7
(lp359
sg9
(lp360
ssS'Suu6_chi1_WBHT'
p361
(dp362
g5
(lp363
sg7
(lp364
sg9
(lp365
ssS'Suu7_chi2p5_HTZT'
p366
(dp367
g5
(lp368
sg7
(lp369
sg9
(lp370
ssS'Suu8_chi2p5_ZTZT'
p371
(dp372
g5
(lp373
sg7
(lp374
sg9
(lp375
ssS'Suu5_chi2_WBHT'
p376
(dp377
g5
(lp378
sg7
(lp379
sg9
(lp380
ssS'Suu8_chi2_HTHT'
p381
(dp382
g5
(lp383
sg7
(lp384
sg9
(lp385
ssS'Suu7_chi2_HTHT'
p386
(dp387
g5
(lp388
sg7
(lp389
sg9
(lp390
ssS'Suu7_chi2_WBZT'
p391
(dp392
g5
(lp393
sg7
(lp394
sg9
(lp395
ssS'Suu4_chi1p5_WBZT'
p396
(dp397
g5
(lp398
sg7
(lp399
sg9
(lp400
ssS'Suu8_chi1p5_HTZT'
p401
(dp402
g5
(lp403
sg7
(lp404
sg9
(lp405
ssS'Suu7_chi1p5_WBHT'
p406
(dp407
g5
(lp408
sg7
(lp409
sg9
(lp410
ssS'Suu4_chi1_HTHT'
p411
(dp412
g5
(lp413
sg7
(lp414
sg9
(lp415
ssS'Suu7_chi2_WBHT'
p416
(dp417
g5
(lp418
sg7
(lp419
sg9
(lp420
ssS'Suu6_chi1p5_HTHT'
p421
(dp422
g5
(lp423
sg7
(lp424
sg9
(lp425
ssS'Suu6_chi1p5_WBHT'
p426
(dp427
g5
(lp428
sg7
(lp429
sg9
(lp430
ssS'Suu7_chi2_WBWB'
p431
(dp432
g5
(lp433
sg7
(lp434
sg9
(lp435
ssS'Suu8_chi2p5_WBHT'
p436
(dp437
g5
(lp438
sg7
(lp439
sg9
(lp440
ssS'Suu7_chi1p5_HTZT'
p441
(dp442
g5
(lp443
sg7
(lp444
sg9
(lp445
ssS'Suu4_chi1_WBWB'
p446
(dp447
g5
(lp448
sg7
(lp449
sg9
(lp450
ssS'Suu5_chi2_HTZT'
p451
(dp452
g5
(lp453
sg7
(lp454
sg9
(lp455
ssS'Suu5_chi1_HTHT'
p456
(dp457
g5
(lp458
sg7
(lp459
sg9
(lp460
ssS'Suu8_chi2_WBZT'
p461
(dp462
g5
(lp463
sg7
(lp464
sg9
(lp465
ssS'Suu5_chi1p5_WBZT'
p466
(dp467
g5
(lp468
sg7
(lp469
sg9
(lp470
ssS'Suu5_chi1_ZTZT'
p471
(dp472
g5
(lp473
sg7
(lp474
sg9
(lp475
ssS'Suu7_chi1_WBHT'
p476
(dp477
g5
(lp478
sg7
(lp479
sg9
(lp480
ssS'Suu5_chi1_WBWB'
p481
(dp482
g5
(lp483
sg7
(lp484
sg9
(lp485
ssS'Suu5_chi2_WBZT'
p486
(dp487
g5
(lp488
sg7
(lp489
sg9
(lp490
ssS'Suu7_chi2_ZTZT'
p491
(dp492
g5
(lp493
sg7
(lp494
sg9
(lp495
ssS'Suu6_chi1_HTZT'
p496
(dp497
g5
(lp498
sg7
(lp499
sg9
(lp500
ssS'Suu8_chi1p5_ZTZT'
p501
(dp502
g5
(lp503
sg7
(lp504
sg9
(lp505
ssS'Suu7_chi3_HTZT'
p506
(dp507
g5
(lp508
sg7
(lp509
sg9
(lp510
ssS'Suu7_chi3_ZTZT'
p511
(dp512
g5
(lp513
sg7
(lp514
sg9
(lp515
ssS'Suu6_chi2p5_WBHT'
p516
(dp517
g5
(lp518
sg7
(lp519
sg9
(lp520
ssS'Suu7_chi1p5_ZTZT'
p521
(dp522
g5
(lp523
sg7
(lp524
sg9
(lp525
ssS'Suu8_chi3_WBZT'
p526
(dp527
g5
(lp528
sg7
(lp529
sg9
(lp530
ssS'Suu6_chi1_ZTZT'
p531
(dp532
g5
(lp533
sg7
(lp534
sg9
(lp535
ssS'Suu8_chi1p5_WBWB'
p536
(dp537
g5
(lp538
sg7
(lp539
sg9
(lp540
ssS'Suu6_chi2_WBZT'
p541
(dp542
g5
(lp543
sg7
(lp544
sg9
(lp545
ssS'Suu8_chi1p5_WBHT'
p546
(dp547
g5
(lp548
sg7
(lp549
sg9
(lp550
sssS'2017'
p551
(dp552
S'Suu6_chi2_WBHT'
p553
(dp554
g5
(lp555
sg7
(lp556
sg9
(lp557
ssS'Suu8_chi2p5_WBWB'
p558
(dp559
g5
(lp560
sg7
(lp561
sg9
(lp562
ssS'Suu6_chi2_WBWB'
p563
(dp564
g5
(lp565
sg7
(lp566
sg9
(lp567
ssS'Suu4_chi1p5_WBWB'
p568
(dp569
g5
(lp570
sg7
(lp571
sg9
(lp572
ssS'Suu7_chi1_WBZT'
p573
(dp574
g5
(lp575
sg7
(lp576
sg9
(lp577
ssS'Suu8_chi2p5_HTHT'
p578
(dp579
g5
(lp580
sg7
(lp581
sg9
(lp582
ssS'Suu8_chi3_WBWB'
p583
(dp584
g5
(lp585
sg7
(lp586
sg9
(lp587
ssS'Suu6_chi1p5_WBWB'
p588
(dp589
g5
(lp590
sg7
(lp591
sg9
(lp592
ssS'Suu6_chi1_WBZT'
p593
(dp594
g5
(lp595
sg7
(lp596
sg9
(lp597
ssS'Suu7_chi3_WBHT'
p598
(dp599
g5
(lp600
sg7
(lp601
sg9
(lp602
ssS'Suu4_chi1p5_HTZT'
p603
(dp604
g5
(lp605
sg7
(lp606
sg9
(lp607
ssS'Suu8_chi1p5_WBZT'
p608
(dp609
g5
(lp610
sg7
(lp611
sg9
(lp612
ssS'Suu7_chi1_ZTZT'
p613
(dp614
g5
(lp615
sg7
(lp616
sg9
(lp617
ssS'Suu8_chi1_HTHT'
p618
(dp619
g5
(lp620
sg7
(lp621
sg9
(lp622
ssS'Suu7_chi2_HTZT'
p623
(dp624
g5
(lp625
sg7
(lp626
sg9
(lp627
ssS'Suu7_chi1p5_WBZT'
p628
(dp629
g5
(lp630
sg7
(lp631
sg9
(lp632
ssS'Suu8_chi1_WBZT'
p633
(dp634
g5
(lp635
sg7
(lp636
sg9
(lp637
ssS'Suu5_chi2_ZTZT'
p638
(dp639
g5
(lp640
sg7
(lp641
sg9
(lp642
ssS'Suu8_chi2_ZTZT'
p643
(dp644
g5
(lp645
sg7
(lp646
sg9
(lp647
ssS'Suu8_chi2p5_HTZT'
p648
(dp649
g5
(lp650
sg7
(lp651
sg9
(lp652
ssS'Suu4_chi1p5_HTHT'
p653
(dp654
g5
(lp655
sg7
(lp656
sg9
(lp657
ssS'Suu8_chi1_WBHT'
p658
(dp659
g5
(lp660
sg7
(lp661
sg9
(lp662
ssS'Suu8_chi3_WBHT'
p663
(dp664
g5
(lp665
sg7
(lp666
sg9
(lp667
ssS'Suu7_chi1_HTHT'
p668
(dp669
g5
(lp670
sg7
(lp671
sg9
(lp672
ssS'Suu7_chi2p5_WBHT'
p673
(dp674
g5
(lp675
sg7
(lp676
sg9
(lp677
ssS'Suu7_chi3_HTHT'
p678
(dp679
g5
(lp680
sg7
(lp681
sg9
(lp682
ssS'Suu4_chi1_HTZT'
p683
(dp684
g5
(lp685
sg7
(lp686
sg9
(lp687
ssS'Suu6_chi1_HTHT'
p688
(dp689
g5
(lp690
sg7
(lp691
sg9
(lp692
ssS'Suu4_chi1_ZTZT'
p693
(dp694
g5
(lp695
sg7
(lp696
sg9
(lp697
ssS'Suu5_chi1p5_HTZT'
p698
(dp699
g5
(lp700
sg7
(lp701
sg9
(lp702
ssS'Suu5_chi1p5_WBHT'
p703
(dp704
g5
(lp705
sg7
(lp706
sg9
(lp707
ssS'Suu7_chi3_WBZT'
p708
(dp709
g5
(lp710
sg7
(lp711
sg9
(lp712
ssS'Suu6_chi2_HTHT'
p713
(dp714
g5
(lp715
sg7
(lp716
sg9
(lp717
ssS'Suu6_chi1p5_ZTZT'
p718
(dp719
g5
(lp720
sg7
(lp721
sg9
(lp722
ssS'Suu4_chi1p5_ZTZT'
p723
(dp724
g5
(lp725
sg7
(lp726
sg9
(lp727
ssS'Suu8_chi2_HTZT'
p728
(dp729
g5
(lp730
sg7
(lp731
sg9
(lp732
ssS'Suu8_chi3_HTZT'
p733
(dp734
g5
(lp735
sg7
(lp736
sg9
(lp737
ssS'Suu6_chi2p5_ZTZT'
p738
(dp739
g5
(lp740
sg7
(lp741
sg9
(lp742
ssS'Suu7_chi1_HTZT'
p743
(dp744
g5
(lp745
sg7
(lp746
sg9
(lp747
ssS'Suu6_chi2p5_WBZT'
p748
(dp749
g5
(lp750
sg7
(lp751
sg9
(lp752
ssS'Suu4_chi1p5_WBHT'
p753
(dp754
g5
(lp755
sg7
(lp756
sg9
(lp757
ssS'Suu5_chi1p5_HTHT'
p758
(dp759
g5
(lp760
sg7
(lp761
sg9
(lp762
ssS'Suu5_chi2_WBWB'
p763
(dp764
g5
(lp765
sg7
(lp766
sg9
(lp767
ssS'Suu8_chi1_HTZT'
p768
(dp769
g5
(lp770
sg7
(lp771
sg9
(lp772
ssS'Suu4_chi1_WBHT'
p773
(dp774
g5
(lp775
sg7
(lp776
sg9
(lp777
ssS'Suu7_chi2p5_WBWB'
p778
(dp779
g5
(lp780
sg7
(lp781
sg9
(lp782
ssS'Suu8_chi2_WBHT'
p783
(dp784
g5
(lp785
sg7
(lp786
sg9
(lp787
ssS'Suu7_chi2p5_ZTZT'
p788
(dp789
g5
(lp790
sg7
(lp791
sg9
(lp792
ssS'Suu5_chi1_WBZT'
p793
(dp794
g5
(lp795
sg7
(lp796
sg9
(lp797
ssS'Suu5_chi1p5_WBWB'
p798
(dp799
g5
(lp800
sg7
(lp801
sg9
(lp802
ssS'Suu8_chi1_ZTZT'
p803
(dp804
g5
(lp805
sg7
(lp806
sg9
(lp807
ssS'Suu8_chi3_HTHT'
p808
(dp809
g5
(lp810
sg7
(lp811
sg9
(lp812
ssS'Suu7_chi3_WBWB'
p813
(dp814
g5
(lp815
sg7
(lp816
sg9
(lp817
ssS'Suu6_chi2p5_HTZT'
p818
(dp819
g5
(lp820
sg7
(lp821
sg9
(lp822
ssS'Suu7_chi1_WBWB'
p823
(dp824
g5
(lp825
sg7
(lp826
sg9
(lp827
ssS'Suu7_chi2p5_WBZT'
p828
(dp829
g5
(lp830
sg7
(lp831
sg9
(lp832
ssS'Suu7_chi1p5_HTHT'
p833
(dp834
g5
(lp835
sg7
(lp836
sg9
(lp837
ssS'Suu5_chi1_HTZT'
p838
(dp839
g5
(lp840
sg7
(lp841
sg9
(lp842
ssS'Suu6_chi1p5_HTZT'
p843
(dp844
g5
(lp845
sg7
(lp846
sg9
(lp847
ssS'Suu8_chi2p5_WBZT'
p848
(dp849
g5
(lp850
sg7
(lp851
sg9
(lp852
ssS'Suu5_chi1_WBHT'
p853
(dp854
g5
(lp855
sg7
(lp856
sg9
(lp857
ssS'Suu7_chi1p5_WBWB'
p858
(dp859
g5
(lp860
sg7
(lp861
sg9
(lp862
ssS'Suu8_chi1p5_HTHT'
p863
(dp864
g5
(lp865
sg7
(lp866
sg9
(lp867
ssS'Suu4_chi1_WBZT'
p868
(dp869
g5
(lp870
sg7
(lp871
sg9
(lp872
ssS'Suu6_chi2p5_HTHT'
p873
(dp874
g5
(lp875
sg7
(lp876
sg9
(lp877
ssS'Suu5_chi2_HTHT'
p878
(dp879
g5
(lp880
sg7
(lp881
sg9
(lp882
ssS'Suu6_chi1p5_WBZT'
p883
(dp884
g5
(lp885
sg7
(lp886
sg9
(lp887
ssS'Suu8_chi1_WBWB'
p888
(dp889
g5
(lp890
sg7
(lp891
sg9
(lp892
ssS'Suu6_chi1_WBWB'
p893
(dp894
g5
(lp895
sg7
(lp896
sg9
(lp897
ssS'Suu8_chi2_WBWB'
p898
(dp899
g5
(lp900
sg7
(lp901
sg9
(lp902
ssS'Suu6_chi2p5_WBWB'
p903
(dp904
g5
(lp905
sg7
(lp906
sg9
(lp907
ssS'Suu6_chi1_WBHT'
p908
(dp909
g5
(lp910
sg7
(lp911
sg9
(lp912
ssS'Suu7_chi2p5_HTZT'
p913
(dp914
g5
(lp915
sg7
(lp916
sg9
(lp917
ssS'Suu8_chi2p5_ZTZT'
p918
(dp919
g5
(lp920
sg7
(lp921
sg9
(lp922
ssS'Suu5_chi2_WBHT'
p923
(dp924
g5
(lp925
sg7
(lp926
sg9
(lp927
ssS'Suu8_chi2_HTHT'
p928
(dp929
g5
(lp930
sg7
(lp931
sg9
(lp932
ssS'Suu7_chi2_HTHT'
p933
(dp934
g5
(lp935
sg7
(lp936
sg9
(lp937
ssS'Suu7_chi2_WBZT'
p938
(dp939
g5
(lp940
sg7
(lp941
sg9
(lp942
ssS'Suu4_chi1p5_WBZT'
p943
(dp944
g5
(lp945
sg7
(lp946
sg9
(lp947
ssS'Suu8_chi1p5_HTZT'
p948
(dp949
g5
(lp950
sg7
(lp951
sg9
(lp952
ssS'Suu7_chi1p5_WBHT'
p953
(dp954
g5
(lp955
sg7
(lp956
sg9
(lp957
ssS'Suu4_chi1_HTHT'
p958
(dp959
g5
(lp960
sg7
(lp961
sg9
(lp962
ssS'Suu7_chi2_WBHT'
p963
(dp964
g5
(lp965
sg7
(lp966
sg9
(lp967
ssS'Suu6_chi1p5_HTHT'
p968
(dp969
g5
(lp970
sg7
(lp971
sg9
(lp972
ssS'Suu6_chi1p5_WBHT'
p973
(dp974
g5
(lp975
sg7
(lp976
sg9
(lp977
ssS'Suu7_chi2_WBWB'
p978
(dp979
g5
(lp980
sg7
(lp981
sg9
(lp982
ssS'Suu8_chi2p5_WBHT'
p983
(dp984
g5
(lp985
sg7
(lp986
sg9
(lp987
ssS'Suu7_chi1p5_HTZT'
p988
(dp989
g5
(lp990
sg7
(lp991
sg9
(lp992
ssS'Suu4_chi1_WBWB'
p993
(dp994
g5
(lp995
sg7
(lp996
sg9
(lp997
ssS'Suu5_chi1_HTHT'
p998
(dp999
g5
(lp1000
sg7
(lp1001
sg9
(lp1002
ssS'Suu8_chi2_WBZT'
p1003
(dp1004
g5
(lp1005
sg7
(lp1006
sg9
(lp1007
ssS'Suu5_chi1p5_WBZT'
p1008
(dp1009
g5
(lp1010
sg7
(lp1011
sg9
(lp1012
ssS'Suu5_chi1_ZTZT'
p1013
(dp1014
g5
(lp1015
sg7
(lp1016
sg9
(lp1017
ssS'Suu7_chi1_WBHT'
p1018
(dp1019
g5
(lp1020
sg7
(lp1021
sg9
(lp1022
ssS'Suu5_chi1_WBWB'
p1023
(dp1024
g5
(lp1025
sg7
(lp1026
sg9
(lp1027
ssS'Suu5_chi2_WBZT'
p1028
(dp1029
g5
(lp1030
sg7
(lp1031
sg9
(lp1032
ssS'Suu7_chi2_ZTZT'
p1033
(dp1034
g5
(lp1035
sg7
(lp1036
sg9
(lp1037
ssS'Suu6_chi1_HTZT'
p1038
(dp1039
g5
(lp1040
sg7
(lp1041
sg9
(lp1042
ssS'Suu8_chi1p5_ZTZT'
p1043
(dp1044
g5
(lp1045
sg7
(lp1046
sg9
(lp1047
ssS'Suu7_chi3_HTZT'
p1048
(dp1049
g5
(lp1050
sg7
(lp1051
sg9
(lp1052
ssS'Suu7_chi3_ZTZT'
p1053
(dp1054
g5
(lp1055
sg7
(lp1056
sg9
(lp1057
ssS'Suu6_chi2p5_WBHT'
p1058
(dp1059
g5
(lp1060
sg7
(lp1061
sg9
(lp1062
ssS'Suu7_chi1p5_ZTZT'
p1063
(dp1064
g5
(lp1065
sg7
(lp1066
sg9
(lp1067
ssS'Suu8_chi3_WBZT'
p1068
(dp1069
g5
(lp1070
sg7
(lp1071
sg9
(lp1072
ssS'Suu6_chi1_ZTZT'
p1073
(dp1074
g5
(lp1075
sg7
(lp1076
sg9
(lp1077
ssS'Suu8_chi1p5_WBWB'
p1078
(dp1079
g5
(lp1080
sg7
(lp1081
sg9
(lp1082
ssS'Suu6_chi2_WBZT'
p1083
(dp1084
g5
(lp1085
sg7
(lp1086
sg9
(lp1087
ssS'Suu8_chi1p5_WBHT'
p1088
(dp1089
g5
(lp1090
sg7
(lp1091
sg9
(lp1092
sssS'2016'
p1093
(dp1094
S'Suu6_chi2_WBHT'
p1095
(dp1096
g5
(lp1097
sg7
(lp1098
sg9
(lp1099
ssS'Suu8_chi2p5_WBWB'
p1100
(dp1101
g5
(lp1102
sg7
(lp1103
sg9
(lp1104
ssS'Suu6_chi2_WBWB'
p1105
(dp1106
g5
(lp1107
sg7
(lp1108
sg9
(lp1109
ssS'Suu4_chi1p5_WBWB'
p1110
(dp1111
g5
(lp1112
sg7
(lp1113
sg9
(lp1114
ssS'Suu7_chi1_WBZT'
p1115
(dp1116
g5
(lp1117
sg7
(lp1118
sg9
(lp1119
ssS'Suu8_chi2p5_HTHT'
p1120
(dp1121
g5
(lp1122
sg7
(lp1123
sg9
(lp1124
ssS'Suu8_chi3_WBWB'
p1125
(dp1126
g5
(lp1127
sg7
(lp1128
sg9
(lp1129
ssS'Suu6_chi1p5_WBWB'
p1130
(dp1131
g5
(lp1132
sg7
(lp1133
sg9
(lp1134
ssS'Suu6_chi1_WBZT'
p1135
(dp1136
g5
(lp1137
sg7
(lp1138
sg9
(lp1139
ssS'Suu7_chi3_WBHT'
p1140
(dp1141
g5
(lp1142
sg7
(lp1143
sg9
(lp1144
ssS'Suu4_chi1p5_HTZT'
p1145
(dp1146
g5
(lp1147
sg7
(lp1148
sg9
(lp1149
ssS'Suu8_chi1p5_WBZT'
p1150
(dp1151
g5
(lp1152
sg7
(lp1153
sg9
(lp1154
ssS'Suu7_chi1_ZTZT'
p1155
(dp1156
g5
(lp1157
sg7
(lp1158
sg9
(lp1159
ssS'Suu8_chi1_HTHT'
p1160
(dp1161
g5
(lp1162
sg7
(lp1163
sg9
(lp1164
ssS'Suu7_chi2_HTZT'
p1165
(dp1166
g5
(lp1167
sg7
(lp1168
sg9
(lp1169
ssS'Suu7_chi1p5_WBZT'
p1170
(dp1171
g5
(lp1172
sg7
(lp1173
sg9
(lp1174
ssS'Suu8_chi1_WBZT'
p1175
(dp1176
g5
(lp1177
sg7
(lp1178
sg9
(lp1179
ssS'Suu5_chi2_ZTZT'
p1180
(dp1181
g5
(lp1182
sg7
(lp1183
sg9
(lp1184
ssS'Suu8_chi2_ZTZT'
p1185
(dp1186
g5
(lp1187
sg7
(lp1188
sg9
(lp1189
ssS'Suu8_chi2p5_HTZT'
p1190
(dp1191
g5
(lp1192
sg7
(lp1193
sg9
(lp1194
ssS'Suu4_chi1p5_HTHT'
p1195
(dp1196
g5
(lp1197
sg7
(lp1198
sg9
(lp1199
ssS'Suu8_chi1_WBHT'
p1200
(dp1201
g5
(lp1202
sg7
(lp1203
sg9
(lp1204
ssS'Suu8_chi3_WBHT'
p1205
(dp1206
g5
(lp1207
sg7
(lp1208
sg9
(lp1209
ssS'Suu7_chi1_HTHT'
p1210
(dp1211
g5
(lp1212
sg7
(lp1213
sg9
(lp1214
ssS'Suu7_chi2p5_WBHT'
p1215
(dp1216
g5
(lp1217
sg7
(lp1218
sg9
(lp1219
ssS'Suu7_chi3_HTHT'
p1220
(dp1221
g5
(lp1222
sg7
(lp1223
sg9
(lp1224
ssS'Suu4_chi1_HTZT'
p1225
(dp1226
g5
(lp1227
sg7
(lp1228
sg9
(lp1229
ssS'Suu6_chi1_HTHT'
p1230
(dp1231
g5
(lp1232
sg7
(lp1233
sg9
(lp1234
ssS'Suu4_chi1_ZTZT'
p1235
(dp1236
g5
(lp1237
sg7
(lp1238
sg9
(lp1239
ssS'Suu5_chi1p5_HTZT'
p1240
(dp1241
g5
(lp1242
sg7
(lp1243
sg9
(lp1244
ssS'Suu5_chi1p5_WBHT'
p1245
(dp1246
g5
(lp1247
sg7
(lp1248
sg9
(lp1249
ssS'Suu7_chi3_WBZT'
p1250
(dp1251
g5
(lp1252
sg7
(lp1253
sg9
(lp1254
ssS'Suu6_chi2_HTHT'
p1255
(dp1256
g5
(lp1257
sg7
(lp1258
sg9
(lp1259
ssS'Suu5_chi1p5_ZTZT'
p1260
(dp1261
g5
(lp1262
sg7
(lp1263
sg9
(lp1264
ssS'Suu6_chi1p5_ZTZT'
p1265
(dp1266
g5
(lp1267
sg7
(lp1268
sg9
(lp1269
ssS'Suu4_chi1p5_ZTZT'
p1270
(dp1271
g5
(lp1272
sg7
(lp1273
sg9
(lp1274
ssS'Suu8_chi2_HTZT'
p1275
(dp1276
g5
(lp1277
sg7
(lp1278
sg9
(lp1279
ssS'Suu8_chi3_HTZT'
p1280
(dp1281
g5
(lp1282
sg7
(lp1283
sg9
(lp1284
ssS'Suu6_chi2p5_ZTZT'
p1285
(dp1286
g5
(lp1287
sg7
(lp1288
sg9
(lp1289
ssS'Suu7_chi1_HTZT'
p1290
(dp1291
g5
(lp1292
sg7
(lp1293
sg9
(lp1294
ssS'Suu6_chi2p5_WBZT'
p1295
(dp1296
g5
(lp1297
sg7
(lp1298
sg9
(lp1299
ssS'Suu4_chi1p5_WBHT'
p1300
(dp1301
g5
(lp1302
sg7
(lp1303
sg9
(lp1304
ssS'Suu5_chi1p5_HTHT'
p1305
(dp1306
g5
(lp1307
sg7
(lp1308
sg9
(lp1309
ssS'Suu5_chi2_WBWB'
p1310
(dp1311
g5
(lp1312
sg7
(lp1313
sg9
(lp1314
ssS'Suu8_chi1_HTZT'
p1315
(dp1316
g5
(lp1317
sg7
(lp1318
sg9
(lp1319
ssS'Suu4_chi1_WBHT'
p1320
(dp1321
g5
(lp1322
sg7
(lp1323
sg9
(lp1324
ssS'Suu7_chi2p5_WBWB'
p1325
(dp1326
g5
(lp1327
sg7
(lp1328
sg9
(lp1329
ssS'Suu8_chi2_WBHT'
p1330
(dp1331
g5
(lp1332
sg7
(lp1333
sg9
(lp1334
ssS'Suu7_chi2p5_ZTZT'
p1335
(dp1336
g5
(lp1337
sg7
(lp1338
sg9
(lp1339
ssS'Suu5_chi1_WBZT'
p1340
(dp1341
g5
(lp1342
sg7
(lp1343
sg9
(lp1344
ssS'Suu5_chi1p5_WBWB'
p1345
(dp1346
g5
(lp1347
sg7
(lp1348
sg9
(lp1349
ssS'Suu8_chi1_ZTZT'
p1350
(dp1351
g5
(lp1352
sg7
(lp1353
sg9
(lp1354
ssS'Suu8_chi3_HTHT'
p1355
(dp1356
g5
(lp1357
sg7
(lp1358
sg9
(lp1359
ssS'Suu7_chi3_WBWB'
p1360
(dp1361
g5
(lp1362
sg7
(lp1363
sg9
(lp1364
ssS'Suu6_chi2p5_HTZT'
p1365
(dp1366
g5
(lp1367
sg7
(lp1368
sg9
(lp1369
ssS'Suu7_chi1_WBWB'
p1370
(dp1371
g5
(lp1372
sg7
(lp1373
sg9
(lp1374
ssS'Suu7_chi2p5_WBZT'
p1375
(dp1376
g5
(lp1377
sg7
(lp1378
sg9
(lp1379
ssS'Suu7_chi1p5_HTHT'
p1380
(dp1381
g5
(lp1382
sg7
(lp1383
sg9
(lp1384
ssS'Suu5_chi1_HTZT'
p1385
(dp1386
g5
(lp1387
sg7
(lp1388
sg9
(lp1389
ssS'Suu6_chi1p5_HTZT'
p1390
(dp1391
g5
(lp1392
sg7
(lp1393
sg9
(lp1394
ssS'Suu8_chi2p5_WBZT'
p1395
(dp1396
g5
(lp1397
sg7
(lp1398
sg9
(lp1399
ssS'Suu5_chi1_WBHT'
p1400
(dp1401
g5
(lp1402
sg7
(lp1403
sg9
(lp1404
ssS'Suu7_chi1p5_WBWB'
p1405
(dp1406
g5
(lp1407
sg7
(lp1408
sg9
(lp1409
ssS'Suu8_chi1p5_HTHT'
p1410
(dp1411
g5
(lp1412
sg7
(lp1413
sg9
(lp1414
ssS'Suu4_chi1_WBZT'
p1415
(dp1416
g5
(lp1417
sg7
(lp1418
sg9
(lp1419
ssS'Suu6_chi2p5_HTHT'
p1420
(dp1421
g5
(lp1422
sg7
(lp1423
sg9
(lp1424
ssS'Suu5_chi2_HTHT'
p1425
(dp1426
g5
(lp1427
sg7
(lp1428
sg9
(lp1429
ssS'Suu6_chi1p5_WBZT'
p1430
(dp1431
g5
(lp1432
sg7
(lp1433
sg9
(lp1434
ssS'Suu8_chi1_WBWB'
p1435
(dp1436
g5
(lp1437
sg7
(lp1438
sg9
(lp1439
ssS'Suu6_chi1_WBWB'
p1440
(dp1441
g5
(lp1442
sg7
(lp1443
sg9
(lp1444
ssS'Suu8_chi2_WBWB'
p1445
(dp1446
g5
(lp1447
sg7
(lp1448
sg9
(lp1449
ssS'Suu6_chi2p5_WBWB'
p1450
(dp1451
g5
(lp1452
sg7
(lp1453
sg9
(lp1454
ssS'Suu6_chi1_WBHT'
p1455
(dp1456
g5
(lp1457
sg7
(lp1458
sg9
(lp1459
ssS'Suu7_chi2p5_HTZT'
p1460
(dp1461
g5
(lp1462
sg7
(lp1463
sg9
(lp1464
ssS'Suu8_chi2p5_ZTZT'
p1465
(dp1466
g5
(lp1467
sg7
(lp1468
sg9
(lp1469
ssS'Suu5_chi2_WBHT'
p1470
(dp1471
g5
(lp1472
sg7
(lp1473
sg9
(lp1474
ssS'Suu8_chi2_HTHT'
p1475
(dp1476
g5
(lp1477
sg7
(lp1478
sg9
(lp1479
ssS'Suu7_chi2_HTHT'
p1480
(dp1481
g5
(lp1482
sg7
(lp1483
sg9
(lp1484
ssS'Suu7_chi2_WBZT'
p1485
(dp1486
g5
(lp1487
sg7
(lp1488
sg9
(lp1489
ssS'Suu4_chi1p5_WBZT'
p1490
(dp1491
g5
(lp1492
sg7
(lp1493
sg9
(lp1494
ssS'Suu8_chi1p5_HTZT'
p1495
(dp1496
g5
(lp1497
sg7
(lp1498
sg9
(lp1499
ssS'Suu7_chi1p5_WBHT'
p1500
(dp1501
g5
(lp1502
sg7
(lp1503
sg9
(lp1504
ssS'Suu4_chi1_HTHT'
p1505
(dp1506
g5
(lp1507
sg7
(lp1508
sg9
(lp1509
ssS'Suu7_chi2_WBHT'
p1510
(dp1511
g5
(lp1512
sg7
(lp1513
sg9
(lp1514
ssS'Suu6_chi1p5_HTHT'
p1515
(dp1516
g5
(lp1517
sg7
(lp1518
sg9
(lp1519
ssS'Suu6_chi1p5_WBHT'
p1520
(dp1521
g5
(lp1522
sg7
(lp1523
sg9
(lp1524
ssS'Suu7_chi2_WBWB'
p1525
(dp1526
g5
(lp1527
sg7
(lp1528
sg9
(lp1529
ssS'Suu8_chi2p5_WBHT'
p1530
(dp1531
g5
(lp1532
sg7
(lp1533
sg9
(lp1534
ssS'Suu7_chi1p5_HTZT'
p1535
(dp1536
g5
(lp1537
sg7
(lp1538
sg9
(lp1539
ssS'Suu4_chi1_WBWB'
p1540
(dp1541
g5
(lp1542
sg7
(lp1543
sg9
(lp1544
ssS'Suu5_chi1_HTHT'
p1545
(dp1546
g5
(lp1547
sg7
(lp1548
sg9
(lp1549
ssS'Suu8_chi2_WBZT'
p1550
(dp1551
g5
(lp1552
sg7
(lp1553
sg9
(lp1554
ssS'Suu5_chi1p5_WBZT'
p1555
(dp1556
g5
(lp1557
sg7
(lp1558
sg9
(lp1559
ssS'Suu5_chi1_ZTZT'
p1560
(dp1561
g5
(lp1562
sg7
(lp1563
sg9
(lp1564
ssS'Suu7_chi1_WBHT'
p1565
(dp1566
g5
(lp1567
sg7
(lp1568
sg9
(lp1569
ssS'Suu5_chi1_WBWB'
p1570
(dp1571
g5
(lp1572
sg7
(lp1573
sg9
(lp1574
ssS'Suu5_chi2_WBZT'
p1575
(dp1576
g5
(lp1577
sg7
(lp1578
sg9
(lp1579
ssS'Suu7_chi2p5_HTHT'
p1580
(dp1581
g5
(lp1582
sg7
(lp1583
sg9
(lp1584
ssS'Suu7_chi2_ZTZT'
p1585
(dp1586
g5
(lp1587
sg7
(lp1588
sg9
(lp1589
ssS'Suu6_chi1_HTZT'
p1590
(dp1591
g5
(lp1592
sg7
(lp1593
sg9
(lp1594
ssS'Suu8_chi1p5_ZTZT'
p1595
(dp1596
g5
(lp1597
sg7
(lp1598
sg9
(lp1599
ssS'Suu7_chi3_HTZT'
p1600
(dp1601
g5
(lp1602
sg7
(lp1603
sg9
(lp1604
ssS'Suu7_chi3_ZTZT'
p1605
(dp1606
g5
(lp1607
sg7
(lp1608
sg9
(lp1609
ssS'Suu6_chi2p5_WBHT'
p1610
(dp1611
g5
(lp1612
sg7
(lp1613
sg9
(lp1614
ssS'Suu7_chi1p5_ZTZT'
p1615
(dp1616
g5
(lp1617
sg7
(lp1618
sg9
(lp1619
ssS'Suu8_chi3_WBZT'
p1620
(dp1621
g5
(lp1622
sg7
(lp1623
sg9
(lp1624
ssS'Suu6_chi1_ZTZT'
p1625
(dp1626
g5
(lp1627
sg7
(lp1628
sg9
(lp1629
ssS'Suu8_chi1p5_WBWB'
p1630
(dp1631
g5
(lp1632
sg7
(lp1633
sg9
(lp1634
ssS'Suu6_chi2_WBZT'
p1635
(dp1636
g5
(lp1637
sg7
(lp1638
sg9
(lp1639
ssS'Suu8_chi1p5_WBHT'
p1640
(dp1641
g5
(lp1642
sg7
(lp1643
sg9
(lp1644
sssS'2018'
p1645
(dp1646
S'Suu6_chi2_WBHT'
p1647
(dp1648
g5
(lp1649
sg7
(lp1650
sg9
(lp1651
ssS'Suu8_chi2p5_WBWB'
p1652
(dp1653
g5
(lp1654
sg7
(lp1655
sg9
(lp1656
ssS'Suu6_chi2_WBWB'
p1657
(dp1658
g5
(lp1659
sg7
(lp1660
sg9
(lp1661
ssS'Suu4_chi1p5_WBWB'
p1662
(dp1663
g5
(lp1664
sg7
(lp1665
sg9
(lp1666
ssS'Suu7_chi1_WBZT'
p1667
(dp1668
g5
(lp1669
sg7
(lp1670
sg9
(lp1671
ssS'Suu8_chi2p5_HTHT'
p1672
(dp1673
g5
(lp1674
sg7
(lp1675
sg9
(lp1676
ssS'Suu8_chi3_WBWB'
p1677
(dp1678
g5
(lp1679
sg7
(lp1680
sg9
(lp1681
ssS'Suu6_chi1p5_WBWB'
p1682
(dp1683
g5
(lp1684
sg7
(lp1685
sg9
(lp1686
ssS'Suu6_chi1_WBZT'
p1687
(dp1688
g5
(lp1689
sg7
(lp1690
sg9
(lp1691
ssS'Suu7_chi3_WBHT'
p1692
(dp1693
g5
(lp1694
sg7
(lp1695
sg9
(lp1696
ssS'Suu4_chi1p5_HTZT'
p1697
(dp1698
g5
(lp1699
sg7
(lp1700
sg9
(lp1701
ssS'Suu8_chi1p5_WBZT'
p1702
(dp1703
g5
(lp1704
sg7
(lp1705
sg9
(lp1706
ssS'Suu7_chi1_ZTZT'
p1707
(dp1708
g5
(lp1709
sg7
(lp1710
sg9
(lp1711
ssS'Suu8_chi1_HTHT'
p1712
(dp1713
g5
(lp1714
sg7
(lp1715
sg9
(lp1716
ssS'Suu7_chi2_HTZT'
p1717
(dp1718
g5
(lp1719
sg7
(lp1720
sg9
(lp1721
ssS'Suu7_chi1p5_WBZT'
p1722
(dp1723
g5
(lp1724
sg7
(lp1725
sg9
(lp1726
ssS'Suu8_chi1_WBZT'
p1727
(dp1728
g5
(lp1729
sg7
(lp1730
sg9
(lp1731
ssS'Suu8_chi2_ZTZT'
p1732
(dp1733
g5
(lp1734
sg7
(lp1735
sg9
(lp1736
ssS'Suu8_chi2p5_HTZT'
p1737
(dp1738
g5
(lp1739
sg7
(lp1740
sg9
(lp1741
ssS'Suu4_chi1p5_HTHT'
p1742
(dp1743
g5
(lp1744
sg7
(lp1745
sg9
(lp1746
ssS'Suu8_chi1_WBHT'
p1747
(dp1748
g5
(lp1749
sg7
(lp1750
sg9
(lp1751
ssS'Suu8_chi3_WBHT'
p1752
(dp1753
g5
(lp1754
sg7
(lp1755
sg9
(lp1756
ssS'Suu7_chi1_HTHT'
p1757
(dp1758
g5
(lp1759
sg7
(lp1760
sg9
(lp1761
ssS'Suu7_chi2p5_WBHT'
p1762
(dp1763
g5
(lp1764
sg7
(lp1765
sg9
(lp1766
ssS'Suu7_chi3_HTHT'
p1767
(dp1768
g5
(lp1769
sg7
(lp1770
sg9
(lp1771
ssS'Suu4_chi1_HTZT'
p1772
(dp1773
g5
(lp1774
sg7
(lp1775
sg9
(lp1776
ssS'Suu6_chi1_HTHT'
p1777
(dp1778
g5
(lp1779
sg7
(lp1780
sg9
(lp1781
ssS'Suu4_chi1_ZTZT'
p1782
(dp1783
g5
(lp1784
sg7
(lp1785
sg9
(lp1786
ssS'Suu5_chi1p5_HTZT'
p1787
(dp1788
g5
(lp1789
sg7
(lp1790
sg9
(lp1791
ssS'Suu5_chi1p5_WBHT'
p1792
(dp1793
g5
(lp1794
sg7
(lp1795
sg9
(lp1796
ssS'Suu7_chi3_WBZT'
p1797
(dp1798
g5
(lp1799
sg7
(lp1800
sg9
(lp1801
ssS'Suu6_chi2_HTHT'
p1802
(dp1803
g5
(lp1804
sg7
(lp1805
sg9
(lp1806
ssS'Suu6_chi1p5_ZTZT'
p1807
(dp1808
g5
(lp1809
sg7
(lp1810
sg9
(lp1811
ssS'Suu4_chi1p5_ZTZT'
p1812
(dp1813
g5
(lp1814
sg7
(lp1815
sg9
(lp1816
ssS'Suu8_chi2_HTZT'
p1817
(dp1818
g5
(lp1819
sg7
(lp1820
sg9
(lp1821
ssS'Suu8_chi3_HTZT'
p1822
(dp1823
g5
(lp1824
sg7
(lp1825
sg9
(lp1826
ssS'Suu6_chi2p5_ZTZT'
p1827
(dp1828
g5
(lp1829
sg7
(lp1830
sg9
(lp1831
ssS'Suu7_chi1_HTZT'
p1832
(dp1833
g5
(lp1834
sg7
(lp1835
sg9
(lp1836
ssS'Suu6_chi2p5_WBZT'
p1837
(dp1838
g5
(lp1839
sg7
(lp1840
sg9
(lp1841
ssS'Suu4_chi1p5_WBHT'
p1842
(dp1843
g5
(lp1844
sg7
(lp1845
sg9
(lp1846
ssS'Suu5_chi1p5_HTHT'
p1847
(dp1848
g5
(lp1849
sg7
(lp1850
sg9
(lp1851
ssS'Suu5_chi2_WBWB'
p1852
(dp1853
g5
(lp1854
sg7
(lp1855
sg9
(lp1856
ssS'Suu8_chi1_HTZT'
p1857
(dp1858
g5
(lp1859
sg7
(lp1860
sg9
(lp1861
ssS'Suu4_chi1_WBHT'
p1862
(dp1863
g5
(lp1864
sg7
(lp1865
sg9
(lp1866
ssS'Suu7_chi2p5_WBWB'
p1867
(dp1868
g5
(lp1869
sg7
(lp1870
sg9
(lp1871
ssS'Suu8_chi2_WBHT'
p1872
(dp1873
g5
(lp1874
sg7
(lp1875
sg9
(lp1876
ssS'Suu7_chi2p5_ZTZT'
p1877
(dp1878
g5
(lp1879
sg7
(lp1880
sg9
(lp1881
ssS'Suu5_chi1_WBZT'
p1882
(dp1883
g5
(lp1884
sg7
(lp1885
sg9
(lp1886
ssS'Suu5_chi1p5_WBWB'
p1887
(dp1888
g5
(lp1889
sg7
(lp1890
sg9
(lp1891
ssS'Suu8_chi1_ZTZT'
p1892
(dp1893
g5
(lp1894
sg7
(lp1895
sg9
(lp1896
ssS'Suu8_chi3_HTHT'
p1897
(dp1898
g5
(lp1899
sg7
(lp1900
sg9
(lp1901
ssS'Suu7_chi3_WBWB'
p1902
(dp1903
g5
(lp1904
sg7
(lp1905
sg9
(lp1906
ssS'Suu6_chi2p5_HTZT'
p1907
(dp1908
g5
(lp1909
sg7
(lp1910
sg9
(lp1911
ssS'Suu7_chi1_WBWB'
p1912
(dp1913
g5
(lp1914
sg7
(lp1915
sg9
(lp1916
ssS'Suu7_chi2p5_WBZT'
p1917
(dp1918
g5
(lp1919
sg7
(lp1920
sg9
(lp1921
ssS'Suu7_chi1p5_HTHT'
p1922
(dp1923
g5
(lp1924
sg7
(lp1925
sg9
(lp1926
ssS'Suu5_chi1_HTZT'
p1927
(dp1928
g5
(lp1929
sg7
(lp1930
sg9
(lp1931
ssS'Suu6_chi1p5_HTZT'
p1932
(dp1933
g5
(lp1934
sg7
(lp1935
sg9
(lp1936
ssS'Suu8_chi2p5_WBZT'
p1937
(dp1938
g5
(lp1939
sg7
(lp1940
sg9
(lp1941
ssS'Suu5_chi1_WBHT'
p1942
(dp1943
g5
(lp1944
sg7
(lp1945
sg9
(lp1946
ssS'Suu7_chi1p5_WBWB'
p1947
(dp1948
g5
(lp1949
sg7
(lp1950
sg9
(lp1951
ssS'Suu8_chi1p5_HTHT'
p1952
(dp1953
g5
(lp1954
sg7
(lp1955
sg9
(lp1956
ssS'Suu4_chi1_WBZT'
p1957
(dp1958
g5
(lp1959
sg7
(lp1960
sg9
(lp1961
ssS'Suu6_chi2p5_HTHT'
p1962
(dp1963
g5
(lp1964
sg7
(lp1965
sg9
(lp1966
ssS'Suu5_chi2_HTHT'
p1967
(dp1968
g5
(lp1969
sg7
(lp1970
sg9
(lp1971
ssS'Suu6_chi1p5_WBZT'
p1972
(dp1973
g5
(lp1974
sg7
(lp1975
sg9
(lp1976
ssS'Suu8_chi1_WBWB'
p1977
(dp1978
g5
(lp1979
sg7
(lp1980
sg9
(lp1981
ssS'Suu6_chi1_WBWB'
p1982
(dp1983
g5
(lp1984
sg7
(lp1985
sg9
(lp1986
ssS'Suu8_chi2_WBWB'
p1987
(dp1988
g5
(lp1989
sg7
(lp1990
sg9
(lp1991
ssS'Suu6_chi2p5_WBWB'
p1992
(dp1993
g5
(lp1994
sg7
(lp1995
sg9
(lp1996
ssS'Suu6_chi1_WBHT'
p1997
(dp1998
g5
(lp1999
sg7
(lp2000
sg9
(lp2001
ssS'Suu8_chi2p5_ZTZT'
p2002
(dp2003
g5
(lp2004
sg7
(lp2005
sg9
(lp2006
ssS'Suu5_chi2_WBHT'
p2007
(dp2008
g5
(lp2009
sg7
(lp2010
sg9
(lp2011
ssS'Suu8_chi2_HTHT'
p2012
(dp2013
g5
(lp2014
sg7
(lp2015
sg9
(lp2016
ssS'Suu7_chi2_HTHT'
p2017
(dp2018
g5
(lp2019
sg7
(lp2020
sg9
(lp2021
ssS'Suu7_chi2_WBZT'
p2022
(dp2023
g5
(lp2024
sg7
(lp2025
sg9
(lp2026
ssS'Suu4_chi1p5_WBZT'
p2027
(dp2028
g5
(lp2029
sg7
(lp2030
sg9
(lp2031
ssS'Suu8_chi1p5_HTZT'
p2032
(dp2033
g5
(lp2034
sg7
(lp2035
sg9
(lp2036
ssS'Suu7_chi1p5_WBHT'
p2037
(dp2038
g5
(lp2039
sg7
(lp2040
sg9
(lp2041
ssS'Suu4_chi1_HTHT'
p2042
(dp2043
g5
(lp2044
sg7
(lp2045
sg9
(lp2046
ssS'Suu7_chi2_WBHT'
p2047
(dp2048
g5
(lp2049
sg7
(lp2050
sg9
(lp2051
ssS'Suu6_chi1p5_HTHT'
p2052
(dp2053
g5
(lp2054
sg7
(lp2055
sg9
(lp2056
ssS'Suu6_chi1p5_WBHT'
p2057
(dp2058
g5
(lp2059
sg7
(lp2060
sg9
(lp2061
ssS'Suu7_chi2_WBWB'
p2062
(dp2063
g5
(lp2064
sg7
(lp2065
sg9
(lp2066
ssS'Suu8_chi2p5_WBHT'
p2067
(dp2068
g5
(lp2069
sg7
(lp2070
sg9
(lp2071
ssS'Suu7_chi1p5_HTZT'
p2072
(dp2073
g5
(lp2074
sg7
(lp2075
sg9
(lp2076
ssS'Suu4_chi1_WBWB'
p2077
(dp2078
g5
(lp2079
sg7
(lp2080
sg9
(lp2081
ssS'Suu5_chi1_HTHT'
p2082
(dp2083
g5
(lp2084
sg7
(lp2085
sg9
(lp2086
ssS'Suu8_chi2_WBZT'
p2087
(dp2088
g5
(lp2089
sg7
(lp2090
sg9
(lp2091
ssS'Suu5_chi1p5_WBZT'
p2092
(dp2093
g5
(lp2094
sg7
(lp2095
sg9
(lp2096
ssS'Suu5_chi1_ZTZT'
p2097
(dp2098
g5
(lp2099
sg7
(lp2100
sg9
(lp2101
ssS'Suu7_chi1_WBHT'
p2102
(dp2103
g5
(lp2104
sg7
(lp2105
sg9
(lp2106
ssS'Suu5_chi1_WBWB'
p2107
(dp2108
g5
(lp2109
sg7
(lp2110
sg9
(lp2111
ssS'Suu5_chi2_WBZT'
p2112
(dp2113
g5
(lp2114
sg7
(lp2115
sg9
(lp2116
ssS'Suu7_chi2_ZTZT'
p2117
(dp2118
g5
(lp2119
sg7
(lp2120
sg9
(lp2121
ssS'Suu6_chi1_HTZT'
p2122
(dp2123
g5
(lp2124
sg7
(lp2125
sg9
(lp2126
ssS'Suu8_chi1p5_ZTZT'
p2127
(dp2128
g5
(lp2129
sg7
(lp2130
sg9
(lp2131
ssS'Suu7_chi3_HTZT'
p2132
(dp2133
g5
(lp2134
sg7
(lp2135
sg9
(lp2136
ssS'Suu7_chi3_ZTZT'
p2137
(dp2138
g5
(lp2139
sg7
(lp2140
sg9
(lp2141
ssS'Suu6_chi2p5_WBHT'
p2142
(dp2143
g5
(lp2144
sg7
(lp2145
sg9
(lp2146
ssS'Suu7_chi1p5_ZTZT'
p2147
(dp2148
g5
(lp2149
sg7
(lp2150
sg9
(lp2151
ssS'Suu8_chi3_WBZT'
p2152
(dp2153
g5
(lp2154
sg7
(lp2155
sg9
(lp2156
ssS'Suu6_chi1_ZTZT'
p2157
(dp2158
g5
(lp2159
sg7
(lp2160
sg9
(lp2161
ssS'Suu8_chi1p5_WBWB'
p2162
(dp2163
g5
(lp2164
sg7
(lp2165
sg9
(lp2166
ssS'Suu6_chi2_WBZT'
p2167
(dp2168
g5
(lp2169
sg7
(lp2170
sg9
(lp2171
ssS'Suu8_chi1p5_WBHT'
p2172
(dp2173
g5
(lp2174
sg7
(lp2175
sg9
(lp2176
sss.