(dp0
S'2015'
p1
(dp2
S'Suu6_chi2_WBHT'
p3
S'/store/mc/RunIISummer20UL16MiniAODAPVv2/SuuToChiChiToHTHTToJets_MSuu-4000_MChi-1000_TuneCP5_13TeV-madgraph-pythia8/MINIAODSIM/106X_mcRun2_asymptotic_preVFP_v11-v1/60000/EF8D3226-9665-FF42-8F73-20E1B71B2703.root'
p4
sS'Suu8_chi2p5_WBWB'
p5
g4
sS'Suu6_chi2_WBWB'
p6
g4
sS'Suu4_chi1p5_WBWB'
p7
g4
sS'Suu7_chi1_WBZT'
p8
g4
sS'Suu8_chi2p5_HTHT'
p9
g4
sS'Suu8_chi3_WBWB'
p10
g4
sS'Suu6_chi1p5_WBWB'
p11
g4
sS'Suu6_chi1_WBZT'
p12
g4
sS'Suu7_chi3_WBHT'
p13
g4
sS'Suu4_chi1p5_HTZT'
p14
g4
sS'Suu8_chi1p5_WBZT'
p15
g4
sS'Suu7_chi1_ZTZT'
p16
g4
sS'Suu8_chi1_HTHT'
p17
g4
sS'Suu7_chi2_HTZT'
p18
g4
sS'Suu7_chi1p5_WBZT'
p19
g4
sS'Suu8_chi1_WBZT'
p20
g4
sS'Suu5_chi2_ZTZT'
p21
g4
sS'Suu8_chi2_ZTZT'
p22
g4
sS'Suu8_chi2p5_HTZT'
p23
g4
sS'Suu4_chi1p5_HTHT'
p24
g4
sS'Suu8_chi1_WBHT'
p25
g4
sS'Suu8_chi3_WBHT'
p26
g4
sS'Suu7_chi1_HTHT'
p27
g4
sS'Suu7_chi2p5_WBHT'
p28
g4
sS'Suu7_chi3_HTHT'
p29
g4
sS'Suu4_chi1_HTZT'
p30
g4
sS'Suu6_chi1_HTHT'
p31
g4
sS'Suu4_chi1_ZTZT'
p32
g4
sS'Suu5_chi1p5_HTZT'
p33
g4
sS'Suu5_chi1p5_WBHT'
p34
g4
sS'Suu7_chi3_WBZT'
p35
g4
sS'Suu6_chi2_HTHT'
p36
g4
sS'Suu5_chi1p5_ZTZT'
p37
g4
sS'Suu6_chi1p5_ZTZT'
p38
g4
sS'Suu4_chi1p5_ZTZT'
p39
g4
sS'Suu8_chi2_HTZT'
p40
g4
sS'Suu8_chi3_HTZT'
p41
g4
sS'Suu6_chi2p5_ZTZT'
p42
g4
sS'Suu7_chi1_HTZT'
p43
g4
sS'Suu6_chi2p5_WBZT'
p44
g4
sS'Suu4_chi1p5_WBHT'
p45
g4
sS'Suu5_chi1p5_HTHT'
p46
g4
sS'Suu5_chi2_WBWB'
p47
g4
sS'Suu8_chi1_HTZT'
p48
g4
sS'Suu4_chi1_WBHT'
p49
g4
sS'Suu7_chi2p5_WBWB'
p50
g4
sS'Suu8_chi2_WBHT'
p51
g4
sS'Suu7_chi2p5_ZTZT'
p52
g4
sS'Suu5_chi1_WBZT'
p53
g4
sS'Suu5_chi1p5_WBWB'
p54
g4
sS'Suu8_chi1_ZTZT'
p55
g4
sS'Suu8_chi3_HTHT'
p56
g4
sS'Suu7_chi3_WBWB'
p57
g4
sS'Suu8_chi3_ZTZT'
p58
g4
sS'Suu6_chi2p5_HTZT'
p59
g4
sS'Suu7_chi1_WBWB'
p60
g4
sS'Suu7_chi2p5_WBZT'
p61
g4
sS'Suu7_chi1p5_HTHT'
p62
g4
sS'Suu5_chi1_HTZT'
p63
g4
sS'Suu6_chi1p5_HTZT'
p64
g4
sS'Suu8_chi2p5_WBZT'
p65
g4
sS'Suu5_chi1_WBHT'
p66
g4
sS'Suu7_chi1p5_WBWB'
p67
g4
sS'Suu8_chi1p5_HTHT'
p68
g4
sS'Suu4_chi1_WBZT'
p69
g4
sS'Suu6_chi2p5_HTHT'
p70
g4
sS'Suu5_chi2_HTHT'
p71
g4
sS'Suu6_chi1p5_WBZT'
p72
g4
sS'Suu8_chi1_WBWB'
p73
g4
sS'Suu6_chi1_WBWB'
p74
g4
sS'Suu8_chi2_WBWB'
p75
g4
sS'Suu6_chi2_ZTZT'
p76
g4
sS'Suu6_chi2p5_WBWB'
p77
g4
sS'Suu6_chi1_WBHT'
p78
g4
sS'Suu7_chi2p5_HTZT'
p79
g4
sS'Suu8_chi2p5_ZTZT'
p80
g4
sS'Suu5_chi2_WBHT'
p81
g4
sS'Suu8_chi2_HTHT'
p82
g4
sS'Suu7_chi2_HTHT'
p83
g4
sS'Suu7_chi2_WBZT'
p84
g4
sS'Suu4_chi1p5_WBZT'
p85
g4
sS'Suu8_chi1p5_HTZT'
p86
g4
sS'Suu7_chi1p5_WBHT'
p87
g4
sS'Suu4_chi1_HTHT'
p88
g4
sS'Suu7_chi2_WBHT'
p89
g4
sS'Suu6_chi1p5_HTHT'
p90
g4
sS'Suu6_chi1p5_WBHT'
p91
g4
sS'Suu7_chi2_WBWB'
p92
g4
sS'Suu8_chi2p5_WBHT'
p93
g4
sS'Suu7_chi1p5_HTZT'
p94
g4
sS'Suu4_chi1_WBWB'
p95
g4
sS'Suu5_chi2_HTZT'
p96
g4
sS'Suu5_chi1_HTHT'
p97
g4
sS'Suu8_chi2_WBZT'
p98
g4
sS'Suu5_chi1p5_WBZT'
p99
g4
sS'Suu5_chi1_ZTZT'
p100
g4
sS'Suu7_chi1_WBHT'
p101
g4
sS'Suu5_chi1_WBWB'
p102
g4
sS'Suu5_chi2_WBZT'
p103
g4
sS'Suu7_chi2p5_HTHT'
p104
g4
sS'Suu7_chi2_ZTZT'
p105
g4
sS'Suu6_chi1_HTZT'
p106
g4
sS'Suu8_chi1p5_ZTZT'
p107
g4
sS'Suu7_chi3_HTZT'
p108
g4
sS'Suu7_chi3_ZTZT'
p109
g4
sS'Suu6_chi2p5_WBHT'
p110
g4
sS'Suu7_chi1p5_ZTZT'
p111
g4
sS'Suu8_chi3_WBZT'
p112
g4
sS'Suu6_chi1_ZTZT'
p113
g4
sS'Suu8_chi1p5_WBWB'
p114
g4
sS'Suu6_chi2_WBZT'
p115
g4
sS'Suu8_chi1p5_WBHT'
p116
g4
ssS'2017'
p117
(dp118
S'Suu6_chi2_WBHT'
p119
S'/store/mc/RunIISummer20UL17MiniAODv2/SuuToChiChiToHTHTToJets_MSuu-4000_MChi-1000_TuneCP5_13TeV-madgraph-pythia8/MINIAODSIM/106X_mc2017_realistic_v9-v3/50000/5734DEE6-8D26-704A-BFA9-E8976034C7F0.root'
p120
sS'Suu8_chi2p5_WBWB'
p121
g120
sS'Suu6_chi2_WBWB'
p122
g120
sS'Suu4_chi1p5_WBWB'
p123
g120
sS'Suu7_chi1_WBZT'
p124
g120
sS'Suu8_chi2p5_HTHT'
p125
g120
sS'Suu8_chi3_WBWB'
p126
g120
sS'Suu6_chi1p5_WBWB'
p127
g120
sS'Suu6_chi1_WBZT'
p128
g120
sS'Suu7_chi3_WBHT'
p129
g120
sS'Suu4_chi1p5_HTZT'
p130
g120
sS'Suu8_chi1p5_WBZT'
p131
g120
sS'Suu7_chi1_ZTZT'
p132
g120
sS'Suu8_chi1_HTHT'
p133
g120
sS'Suu7_chi2_HTZT'
p134
g120
sS'Suu7_chi1p5_WBZT'
p135
g120
sS'Suu8_chi1_WBZT'
p136
g120
sS'Suu5_chi2_ZTZT'
p137
g120
sS'Suu8_chi2_ZTZT'
p138
g120
sS'Suu8_chi2p5_HTZT'
p139
g120
sS'Suu4_chi1p5_HTHT'
p140
g120
sS'Suu8_chi1_WBHT'
p141
g120
sS'Suu8_chi3_WBHT'
p142
g120
sS'Suu7_chi1_HTHT'
p143
g120
sS'Suu7_chi2p5_WBHT'
p144
g120
sS'Suu7_chi3_HTHT'
p145
g120
sS'Suu4_chi1_HTZT'
p146
g120
sS'Suu6_chi1_HTHT'
p147
g120
sS'Suu4_chi1_ZTZT'
p148
g120
sS'Suu5_chi1p5_HTZT'
p149
g120
sS'Suu5_chi1p5_WBHT'
p150
g120
sS'Suu7_chi3_WBZT'
p151
g120
sS'Suu6_chi2_HTHT'
p152
g120
sS'Suu5_chi1p5_ZTZT'
p153
g120
sS'Suu6_chi1p5_ZTZT'
p154
g120
sS'Suu4_chi1p5_ZTZT'
p155
g120
sS'Suu8_chi2_HTZT'
p156
g120
sS'Suu8_chi3_HTZT'
p157
g120
sS'Suu6_chi2p5_ZTZT'
p158
g120
sS'Suu7_chi1_HTZT'
p159
g120
sS'Suu6_chi2p5_WBZT'
p160
g120
sS'Suu4_chi1p5_WBHT'
p161
g120
sS'Suu5_chi1p5_HTHT'
p162
g120
sS'Suu5_chi2_WBWB'
p163
g120
sS'Suu8_chi1_HTZT'
p164
g120
sS'Suu4_chi1_WBHT'
p165
g120
sS'Suu7_chi2p5_WBWB'
p166
g120
sS'Suu8_chi2_WBHT'
p167
g120
sS'Suu7_chi2p5_ZTZT'
p168
g120
sS'Suu5_chi1_WBZT'
p169
g120
sS'Suu5_chi1p5_WBWB'
p170
g120
sS'Suu8_chi1_ZTZT'
p171
g120
sS'Suu8_chi3_HTHT'
p172
g120
sS'Suu7_chi3_WBWB'
p173
g120
sS'Suu8_chi3_ZTZT'
p174
g120
sS'Suu6_chi2p5_HTZT'
p175
g120
sS'Suu7_chi1_WBWB'
p176
g120
sS'Suu7_chi2p5_WBZT'
p177
g120
sS'Suu7_chi1p5_HTHT'
p178
g120
sS'Suu5_chi1_HTZT'
p179
g120
sS'Suu6_chi1p5_HTZT'
p180
g120
sS'Suu8_chi2p5_WBZT'
p181
g120
sS'Suu5_chi1_WBHT'
p182
g120
sS'Suu7_chi1p5_WBWB'
p183
g120
sS'Suu8_chi1p5_HTHT'
p184
g120
sS'Suu4_chi1_WBZT'
p185
g120
sS'Suu6_chi2p5_HTHT'
p186
g120
sS'Suu5_chi2_HTHT'
p187
g120
sS'Suu6_chi1p5_WBZT'
p188
g120
sS'Suu8_chi1_WBWB'
p189
g120
sS'Suu6_chi1_WBWB'
p190
g120
sS'Suu8_chi2_WBWB'
p191
g120
sS'Suu6_chi2_ZTZT'
p192
g120
sS'Suu6_chi2p5_WBWB'
p193
g120
sS'Suu6_chi1_WBHT'
p194
g120
sS'Suu7_chi2p5_HTZT'
p195
g120
sS'Suu8_chi2p5_ZTZT'
p196
g120
sS'Suu5_chi2_WBHT'
p197
g120
sS'Suu8_chi2_HTHT'
p198
g120
sS'Suu7_chi2_HTHT'
p199
g120
sS'Suu7_chi2_WBZT'
p200
g120
sS'Suu4_chi1p5_WBZT'
p201
g120
sS'Suu8_chi1p5_HTZT'
p202
g120
sS'Suu7_chi1p5_WBHT'
p203
g120
sS'Suu4_chi1_HTHT'
p204
g120
sS'Suu7_chi2_WBHT'
p205
g120
sS'Suu6_chi1p5_HTHT'
p206
g120
sS'Suu6_chi1p5_WBHT'
p207
g120
sS'Suu7_chi2_WBWB'
p208
g120
sS'Suu8_chi2p5_WBHT'
p209
g120
sS'Suu7_chi1p5_HTZT'
p210
g120
sS'Suu4_chi1_WBWB'
p211
g120
sS'Suu5_chi2_HTZT'
p212
g120
sS'Suu5_chi1_HTHT'
p213
g120
sS'Suu8_chi2_WBZT'
p214
g120
sS'Suu5_chi1p5_WBZT'
p215
g120
sS'Suu5_chi1_ZTZT'
p216
g120
sS'Suu7_chi1_WBHT'
p217
g120
sS'Suu5_chi1_WBWB'
p218
g120
sS'Suu5_chi2_WBZT'
p219
g120
sS'Suu7_chi2p5_HTHT'
p220
g120
sS'Suu7_chi2_ZTZT'
p221
g120
sS'Suu6_chi1_HTZT'
p222
g120
sS'Suu8_chi1p5_ZTZT'
p223
g120
sS'Suu7_chi3_HTZT'
p224
g120
sS'Suu7_chi3_ZTZT'
p225
g120
sS'Suu6_chi2p5_WBHT'
p226
g120
sS'Suu7_chi1p5_ZTZT'
p227
g120
sS'Suu8_chi3_WBZT'
p228
g120
sS'Suu6_chi1_ZTZT'
p229
g120
sS'Suu8_chi1p5_WBWB'
p230
g120
sS'Suu6_chi2_WBZT'
p231
g120
sS'Suu8_chi1p5_WBHT'
p232
g120
ssS'2016'
p233
(dp234
S'Suu6_chi2_WBHT'
p235
S'/store/mc/RunIISummer20UL16MiniAODv2/SuuToChiChiToHTHTToJets_MSuu-4000_MChi-1000_TuneCP5_13TeV-madgraph-pythia8/MINIAODSIM/106X_mcRun2_asymptotic_v17-v1/2550000/AC2EE404-F819-CE4D-AB22-7BE35E278E18.root'
p236
sS'Suu8_chi2p5_WBWB'
p237
g236
sS'Suu6_chi2_WBWB'
p238
g236
sS'Suu4_chi1p5_WBWB'
p239
g236
sS'Suu7_chi1_WBZT'
p240
g236
sS'Suu8_chi2p5_HTHT'
p241
g236
sS'Suu8_chi3_WBWB'
p242
g236
sS'Suu6_chi1p5_WBWB'
p243
g236
sS'Suu6_chi1_WBZT'
p244
g236
sS'Suu7_chi3_WBHT'
p245
g236
sS'Suu4_chi1p5_HTZT'
p246
g236
sS'Suu8_chi1p5_WBZT'
p247
g236
sS'Suu7_chi1_ZTZT'
p248
g236
sS'Suu8_chi1_HTHT'
p249
g236
sS'Suu7_chi2_HTZT'
p250
g236
sS'Suu7_chi1p5_WBZT'
p251
g236
sS'Suu8_chi1_WBZT'
p252
g236
sS'Suu5_chi2_ZTZT'
p253
g236
sS'Suu8_chi2_ZTZT'
p254
g236
sS'Suu8_chi2p5_HTZT'
p255
g236
sS'Suu4_chi1p5_HTHT'
p256
g236
sS'Suu8_chi1_WBHT'
p257
g236
sS'Suu8_chi3_WBHT'
p258
g236
sS'Suu7_chi1_HTHT'
p259
g236
sS'Suu7_chi2p5_WBHT'
p260
g236
sS'Suu7_chi3_HTHT'
p261
g236
sS'Suu4_chi1_HTZT'
p262
g236
sS'Suu6_chi1_HTHT'
p263
g236
sS'Suu4_chi1_ZTZT'
p264
g236
sS'Suu5_chi1p5_HTZT'
p265
g236
sS'Suu5_chi1p5_WBHT'
p266
g236
sS'Suu7_chi3_WBZT'
p267
g236
sS'Suu6_chi2_HTHT'
p268
g236
sS'Suu5_chi1p5_ZTZT'
p269
g236
sS'Suu6_chi1p5_ZTZT'
p270
g236
sS'Suu4_chi1p5_ZTZT'
p271
g236
sS'Suu8_chi2_HTZT'
p272
g236
sS'Suu8_chi3_HTZT'
p273
g236
sS'Suu6_chi2p5_ZTZT'
p274
g236
sS'Suu7_chi1_HTZT'
p275
g236
sS'Suu6_chi2p5_WBZT'
p276
g236
sS'Suu4_chi1p5_WBHT'
p277
g236
sS'Suu5_chi1p5_HTHT'
p278
g236
sS'Suu5_chi2_WBWB'
p279
g236
sS'Suu8_chi1_HTZT'
p280
g236
sS'Suu4_chi1_WBHT'
p281
g236
sS'Suu7_chi2p5_WBWB'
p282
g236
sS'Suu8_chi2_WBHT'
p283
g236
sS'Suu7_chi2p5_ZTZT'
p284
g236
sS'Suu5_chi1_WBZT'
p285
g236
sS'Suu5_chi1p5_WBWB'
p286
g236
sS'Suu8_chi1_ZTZT'
p287
g236
sS'Suu8_chi3_HTHT'
p288
g236
sS'Suu7_chi3_WBWB'
p289
g236
sS'Suu8_chi3_ZTZT'
p290
g236
sS'Suu6_chi2p5_HTZT'
p291
g236
sS'Suu7_chi1_WBWB'
p292
g236
sS'Suu7_chi2p5_WBZT'
p293
g236
sS'Suu7_chi1p5_HTHT'
p294
g236
sS'Suu5_chi1_HTZT'
p295
g236
sS'Suu6_chi1p5_HTZT'
p296
g236
sS'Suu8_chi2p5_WBZT'
p297
g236
sS'Suu5_chi1_WBHT'
p298
g236
sS'Suu7_chi1p5_WBWB'
p299
g236
sS'Suu8_chi1p5_HTHT'
p300
g236
sS'Suu4_chi1_WBZT'
p301
g236
sS'Suu6_chi2p5_HTHT'
p302
g236
sS'Suu5_chi2_HTHT'
p303
g236
sS'Suu6_chi1p5_WBZT'
p304
g236
sS'Suu8_chi1_WBWB'
p305
g236
sS'Suu6_chi1_WBWB'
p306
g236
sS'Suu8_chi2_WBWB'
p307
g236
sS'Suu6_chi2_ZTZT'
p308
g236
sS'Suu6_chi2p5_WBWB'
p309
g236
sS'Suu6_chi1_WBHT'
p310
g236
sS'Suu7_chi2p5_HTZT'
p311
g236
sS'Suu8_chi2p5_ZTZT'
p312
g236
sS'Suu5_chi2_WBHT'
p313
g236
sS'Suu8_chi2_HTHT'
p314
g236
sS'Suu7_chi2_HTHT'
p315
g236
sS'Suu7_chi2_WBZT'
p316
g236
sS'Suu4_chi1p5_WBZT'
p317
g236
sS'Suu8_chi1p5_HTZT'
p318
g236
sS'Suu7_chi1p5_WBHT'
p319
g236
sS'Suu4_chi1_HTHT'
p320
g236
sS'Suu7_chi2_WBHT'
p321
g236
sS'Suu6_chi1p5_HTHT'
p322
g236
sS'Suu6_chi1p5_WBHT'
p323
g236
sS'Suu7_chi2_WBWB'
p324
g236
sS'Suu8_chi2p5_WBHT'
p325
g236
sS'Suu7_chi1p5_HTZT'
p326
g236
sS'Suu4_chi1_WBWB'
p327
g236
sS'Suu5_chi2_HTZT'
p328
g236
sS'Suu5_chi1_HTHT'
p329
g236
sS'Suu8_chi2_WBZT'
p330
g236
sS'Suu5_chi1p5_WBZT'
p331
g236
sS'Suu5_chi1_ZTZT'
p332
g236
sS'Suu7_chi1_WBHT'
p333
g236
sS'Suu5_chi1_WBWB'
p334
g236
sS'Suu5_chi2_WBZT'
p335
g236
sS'Suu7_chi2p5_HTHT'
p336
g236
sS'Suu7_chi2_ZTZT'
p337
g236
sS'Suu6_chi1_HTZT'
p338
g236
sS'Suu8_chi1p5_ZTZT'
p339
g236
sS'Suu7_chi3_HTZT'
p340
g236
sS'Suu7_chi3_ZTZT'
p341
g236
sS'Suu6_chi2p5_WBHT'
p342
g236
sS'Suu7_chi1p5_ZTZT'
p343
g236
sS'Suu8_chi3_WBZT'
p344
g236
sS'Suu6_chi1_ZTZT'
p345
g236
sS'Suu8_chi1p5_WBWB'
p346
g236
sS'Suu6_chi2_WBZT'
p347
g236
sS'Suu8_chi1p5_WBHT'
p348
g236
ssS'2018'
p349
(dp350
S'Suu6_chi2_WBHT'
p351
S'/store/mc/RunIISummer20UL18MiniAODv2/SuuToChiChiToHTHTToJets_MSuu-4000_MChi-1000_TuneCP5_13TeV-madgraph-pythia8/MINIAODSIM/106X_upgrade2018_realistic_v16_L1v1-v1/2550000/73C711C9-0871-1143-9C3E-D2EA21C33C71.root'
p352
sS'Suu8_chi2p5_WBWB'
p353
g352
sS'Suu6_chi2_WBWB'
p354
g352
sS'Suu4_chi1p5_WBWB'
p355
g352
sS'Suu7_chi1_WBZT'
p356
g352
sS'Suu8_chi2p5_HTHT'
p357
g352
sS'Suu8_chi3_WBWB'
p358
g352
sS'Suu6_chi1p5_WBWB'
p359
g352
sS'Suu6_chi1_WBZT'
p360
g352
sS'Suu7_chi3_WBHT'
p361
g352
sS'Suu4_chi1p5_HTZT'
p362
g352
sS'Suu8_chi1p5_WBZT'
p363
g352
sS'Suu7_chi1_ZTZT'
p364
g352
sS'Suu8_chi1_HTHT'
p365
g352
sS'Suu7_chi2_HTZT'
p366
g352
sS'Suu7_chi1p5_WBZT'
p367
g352
sS'Suu8_chi1_WBZT'
p368
g352
sS'Suu5_chi2_ZTZT'
p369
g352
sS'Suu8_chi2_ZTZT'
p370
g352
sS'Suu8_chi2p5_HTZT'
p371
g352
sS'Suu4_chi1p5_HTHT'
p372
g352
sS'Suu8_chi1_WBHT'
p373
g352
sS'Suu8_chi3_WBHT'
p374
g352
sS'Suu7_chi1_HTHT'
p375
g352
sS'Suu7_chi2p5_WBHT'
p376
g352
sS'Suu7_chi3_HTHT'
p377
g352
sS'Suu4_chi1_HTZT'
p378
g352
sS'Suu6_chi1_HTHT'
p379
g352
sS'Suu4_chi1_ZTZT'
p380
g352
sS'Suu5_chi1p5_HTZT'
p381
g352
sS'Suu5_chi1p5_WBHT'
p382
g352
sS'Suu7_chi3_WBZT'
p383
g352
sS'Suu6_chi2_HTHT'
p384
g352
sS'Suu5_chi1p5_ZTZT'
p385
g352
sS'Suu6_chi1p5_ZTZT'
p386
g352
sS'Suu4_chi1p5_ZTZT'
p387
g352
sS'Suu8_chi2_HTZT'
p388
g352
sS'Suu8_chi3_HTZT'
p389
g352
sS'Suu6_chi2p5_ZTZT'
p390
g352
sS'Suu7_chi1_HTZT'
p391
g352
sS'Suu6_chi2p5_WBZT'
p392
g352
sS'Suu4_chi1p5_WBHT'
p393
g352
sS'Suu5_chi1p5_HTHT'
p394
g352
sS'Suu5_chi2_WBWB'
p395
g352
sS'Suu8_chi1_HTZT'
p396
g352
sS'Suu4_chi1_WBHT'
p397
g352
sS'Suu7_chi2p5_WBWB'
p398
g352
sS'Suu8_chi2_WBHT'
p399
g352
sS'Suu7_chi2p5_ZTZT'
p400
g352
sS'Suu5_chi1_WBZT'
p401
g352
sS'Suu5_chi1p5_WBWB'
p402
g352
sS'Suu8_chi1_ZTZT'
p403
g352
sS'Suu8_chi3_HTHT'
p404
g352
sS'Suu7_chi3_WBWB'
p405
g352
sS'Suu8_chi3_ZTZT'
p406
g352
sS'Suu6_chi2p5_HTZT'
p407
g352
sS'Suu7_chi1_WBWB'
p408
g352
sS'Suu7_chi2p5_WBZT'
p409
g352
sS'Suu7_chi1p5_HTHT'
p410
g352
sS'Suu5_chi1_HTZT'
p411
g352
sS'Suu6_chi1p5_HTZT'
p412
g352
sS'Suu8_chi2p5_WBZT'
p413
g352
sS'Suu5_chi1_WBHT'
p414
g352
sS'Suu7_chi1p5_WBWB'
p415
g352
sS'Suu8_chi1p5_HTHT'
p416
g352
sS'Suu4_chi1_WBZT'
p417
g352
sS'Suu6_chi2p5_HTHT'
p418
g352
sS'Suu5_chi2_HTHT'
p419
g352
sS'Suu6_chi1p5_WBZT'
p420
g352
sS'Suu8_chi1_WBWB'
p421
g352
sS'Suu6_chi1_WBWB'
p422
g352
sS'Suu8_chi2_WBWB'
p423
g352
sS'Suu6_chi2_ZTZT'
p424
g352
sS'Suu6_chi2p5_WBWB'
p425
g352
sS'Suu6_chi1_WBHT'
p426
g352
sS'Suu7_chi2p5_HTZT'
p427
g352
sS'Suu8_chi2p5_ZTZT'
p428
g352
sS'Suu5_chi2_WBHT'
p429
g352
sS'Suu8_chi2_HTHT'
p430
g352
sS'Suu7_chi2_HTHT'
p431
g352
sS'Suu7_chi2_WBZT'
p432
g352
sS'Suu4_chi1p5_WBZT'
p433
g352
sS'Suu8_chi1p5_HTZT'
p434
g352
sS'Suu7_chi1p5_WBHT'
p435
g352
sS'Suu4_chi1_HTHT'
p436
g352
sS'Suu7_chi2_WBHT'
p437
g352
sS'Suu6_chi1p5_HTHT'
p438
g352
sS'Suu6_chi1p5_WBHT'
p439
g352
sS'Suu7_chi2_WBWB'
p440
g352
sS'Suu8_chi2p5_WBHT'
p441
g352
sS'Suu7_chi1p5_HTZT'
p442
g352
sS'Suu4_chi1_WBWB'
p443
g352
sS'Suu5_chi2_HTZT'
p444
g352
sS'Suu5_chi1_HTHT'
p445
g352
sS'Suu8_chi2_WBZT'
p446
g352
sS'Suu5_chi1p5_WBZT'
p447
g352
sS'Suu5_chi1_ZTZT'
p448
g352
sS'Suu7_chi1_WBHT'
p449
g352
sS'Suu5_chi1_WBWB'
p450
g352
sS'Suu5_chi2_WBZT'
p451
g352
sS'Suu7_chi2p5_HTHT'
p452
g352
sS'Suu7_chi2_ZTZT'
p453
g352
sS'Suu6_chi1_HTZT'
p454
g352
sS'Suu8_chi1p5_ZTZT'
p455
g352
sS'Suu7_chi3_HTZT'
p456
g352
sS'Suu7_chi3_ZTZT'
p457
g352
sS'Suu6_chi2p5_WBHT'
p458
g352
sS'Suu7_chi1p5_ZTZT'
p459
g352
sS'Suu8_chi3_WBZT'
p460
g352
sS'Suu6_chi1_ZTZT'
p461
g352
sS'Suu8_chi1p5_WBWB'
p462
g352
sS'Suu6_chi2_WBZT'
p463
g352
sS'Suu8_chi1p5_WBHT'
p464
g352
ss.