(dp0
S'2015'
p1
(dp2
S'Suu6_chi2_WBHT'
p3
(dp4
S'JEC2'
p5
(lp6
sS'JEC'
p7
(lp8
sS'JEC1'
p9
(lp10
sS'nom'
p11
(lp12
sS'JER'
p13
(lp14
ssS'Suu8_chi2p5_WBWB'
p15
(dp16
g5
(lp17
sg7
(lp18
sg9
(lp19
sg11
(lp20
sg13
(lp21
ssS'Suu6_chi2_WBWB'
p22
(dp23
g5
(lp24
sg7
(lp25
sg9
(lp26
sg11
(lp27
sg13
(lp28
ssS'Suu4_chi1p5_WBWB'
p29
(dp30
g5
(lp31
sg7
(lp32
sg9
(lp33
sg11
(lp34
sg13
(lp35
ssS'Suu7_chi1_WBZT'
p36
(dp37
g5
(lp38
sg7
(lp39
sg9
(lp40
sg11
(lp41
sg13
(lp42
ssS'Suu8_chi2p5_HTHT'
p43
(dp44
g5
(lp45
sg7
(lp46
sg9
(lp47
sg11
(lp48
sg13
(lp49
ssS'Suu8_chi3_WBWB'
p50
(dp51
g5
(lp52
sg7
(lp53
sg9
(lp54
sg11
(lp55
sg13
(lp56
ssS'Suu6_chi1p5_WBWB'
p57
(dp58
g5
(lp59
sg7
(lp60
sg9
(lp61
sg11
(lp62
sg13
(lp63
ssS'Suu6_chi1_WBZT'
p64
(dp65
g5
(lp66
sg7
(lp67
sg9
(lp68
sg11
(lp69
sg13
(lp70
ssS'Suu7_chi3_WBHT'
p71
(dp72
g5
(lp73
sg7
(lp74
sg9
(lp75
sg11
(lp76
sg13
(lp77
ssS'Suu4_chi1p5_HTZT'
p78
(dp79
g5
(lp80
sg7
(lp81
sg9
(lp82
sg11
(lp83
sg13
(lp84
ssS'Suu8_chi1p5_WBZT'
p85
(dp86
g5
(lp87
sg7
(lp88
sg9
(lp89
sg11
(lp90
sg13
(lp91
ssS'Suu7_chi1_ZTZT'
p92
(dp93
g5
(lp94
sg7
(lp95
sg9
(lp96
sg11
(lp97
sg13
(lp98
ssS'Suu8_chi1_HTHT'
p99
(dp100
g5
(lp101
sg7
(lp102
sg9
(lp103
sg11
(lp104
sg13
(lp105
ssS'Suu7_chi2_HTZT'
p106
(dp107
g5
(lp108
sg7
(lp109
sg9
(lp110
sg11
(lp111
sg13
(lp112
ssS'Suu7_chi1p5_WBZT'
p113
(dp114
g5
(lp115
sg7
(lp116
sg9
(lp117
sg11
(lp118
sg13
(lp119
ssS'Suu8_chi1_WBZT'
p120
(dp121
g5
(lp122
sg7
(lp123
sg9
(lp124
sg11
(lp125
sg13
(lp126
ssS'Suu5_chi2_ZTZT'
p127
(dp128
g5
(lp129
sg7
(lp130
sg9
(lp131
sg11
(lp132
sg13
(lp133
ssS'Suu8_chi2_ZTZT'
p134
(dp135
g5
(lp136
sg7
(lp137
sg9
(lp138
sg11
(lp139
sg13
(lp140
ssS'Suu8_chi2p5_HTZT'
p141
(dp142
g5
(lp143
sg7
(lp144
sg9
(lp145
sg11
(lp146
sg13
(lp147
ssS'Suu4_chi1p5_HTHT'
p148
(dp149
g5
(lp150
sg7
(lp151
sg9
(lp152
sg11
(lp153
sg13
(lp154
ssS'Suu8_chi1_WBHT'
p155
(dp156
g5
(lp157
sg7
(lp158
sg9
(lp159
sg11
(lp160
sg13
(lp161
ssS'Suu8_chi3_WBHT'
p162
(dp163
g5
(lp164
sg7
(lp165
sg9
(lp166
sg11
(lp167
sg13
(lp168
ssS'Suu7_chi1_HTHT'
p169
(dp170
g5
(lp171
sg7
(lp172
sg9
(lp173
sg11
(lp174
sg13
(lp175
ssS'Suu7_chi2p5_WBHT'
p176
(dp177
g5
(lp178
sg7
(lp179
sg9
(lp180
sg11
(lp181
sg13
(lp182
ssS'Suu7_chi3_HTHT'
p183
(dp184
g5
(lp185
sg7
(lp186
sg9
(lp187
sg11
(lp188
sg13
(lp189
ssS'Suu4_chi1_HTZT'
p190
(dp191
g5
(lp192
sg7
(lp193
sg9
(lp194
sg11
(lp195
sg13
(lp196
ssS'Suu6_chi1_HTHT'
p197
(dp198
g5
(lp199
sg7
(lp200
sg9
(lp201
sg11
(lp202
sg13
(lp203
ssS'Suu4_chi1_ZTZT'
p204
(dp205
g5
(lp206
sg7
(lp207
sg9
(lp208
sg11
(lp209
sg13
(lp210
ssS'Suu5_chi1p5_HTZT'
p211
(dp212
g5
(lp213
sg7
(lp214
sg9
(lp215
sg11
(lp216
sg13
(lp217
ssS'Suu5_chi1p5_WBHT'
p218
(dp219
g5
(lp220
sg7
(lp221
sg9
(lp222
sg11
(lp223
sg13
(lp224
ssS'Suu7_chi3_WBZT'
p225
(dp226
g5
(lp227
sg7
(lp228
sg9
(lp229
sg11
(lp230
sg13
(lp231
ssS'Suu6_chi2_HTHT'
p232
(dp233
g5
(lp234
sg7
(lp235
sg9
(lp236
sg11
(lp237
sg13
(lp238
ssS'Suu5_chi1p5_ZTZT'
p239
(dp240
g5
(lp241
sg7
(lp242
sg9
(lp243
sg11
(lp244
sg13
(lp245
ssS'Suu6_chi1p5_ZTZT'
p246
(dp247
g5
(lp248
sg7
(lp249
sg9
(lp250
sg11
(lp251
sg13
(lp252
ssS'Suu4_chi1p5_ZTZT'
p253
(dp254
g5
(lp255
sg7
(lp256
sg9
(lp257
sg11
(lp258
sg13
(lp259
ssS'Suu8_chi2_HTZT'
p260
(dp261
g5
(lp262
sg7
(lp263
sg9
(lp264
sg11
(lp265
sg13
(lp266
ssS'Suu8_chi3_HTZT'
p267
(dp268
g5
(lp269
sg7
(lp270
sg9
(lp271
sg11
(lp272
sg13
(lp273
ssS'Suu6_chi2p5_ZTZT'
p274
(dp275
g5
(lp276
sg7
(lp277
sg9
(lp278
sg11
(lp279
sg13
(lp280
ssS'Suu7_chi1_HTZT'
p281
(dp282
g5
(lp283
sg7
(lp284
sg9
(lp285
sg11
(lp286
sg13
(lp287
ssS'Suu6_chi2p5_WBZT'
p288
(dp289
g5
(lp290
sg7
(lp291
sg9
(lp292
sg11
(lp293
sg13
(lp294
ssS'Suu4_chi1p5_WBHT'
p295
(dp296
g5
(lp297
sg7
(lp298
sg9
(lp299
sg11
(lp300
sg13
(lp301
ssS'Suu5_chi1p5_HTHT'
p302
(dp303
g5
(lp304
sg7
(lp305
sg9
(lp306
sg11
(lp307
sg13
(lp308
ssS'Suu5_chi2_WBWB'
p309
(dp310
g5
(lp311
sg7
(lp312
sg9
(lp313
sg11
(lp314
sg13
(lp315
ssS'Suu8_chi1_HTZT'
p316
(dp317
g5
(lp318
sg7
(lp319
sg9
(lp320
sg11
(lp321
sg13
(lp322
ssS'Suu4_chi1_WBHT'
p323
(dp324
g5
(lp325
sg7
(lp326
sg9
(lp327
sg11
(lp328
sg13
(lp329
ssS'Suu7_chi2p5_WBWB'
p330
(dp331
g5
(lp332
sg7
(lp333
sg9
(lp334
sg11
(lp335
sg13
(lp336
ssS'Suu8_chi2_WBHT'
p337
(dp338
g5
(lp339
sg7
(lp340
sg9
(lp341
sg11
(lp342
sg13
(lp343
ssS'Suu7_chi2p5_ZTZT'
p344
(dp345
g5
(lp346
sg7
(lp347
sg9
(lp348
sg11
(lp349
sg13
(lp350
ssS'Suu5_chi1_WBZT'
p351
(dp352
g5
(lp353
sg7
(lp354
sg9
(lp355
sg11
(lp356
sg13
(lp357
ssS'Suu5_chi1p5_WBWB'
p358
(dp359
g5
(lp360
sg7
(lp361
sg9
(lp362
sg11
(lp363
sg13
(lp364
ssS'Suu8_chi1_ZTZT'
p365
(dp366
g5
(lp367
sg7
(lp368
sg9
(lp369
sg11
(lp370
sg13
(lp371
ssS'Suu8_chi3_HTHT'
p372
(dp373
g5
(lp374
sg7
(lp375
sg9
(lp376
sg11
(lp377
sg13
(lp378
ssS'Suu7_chi3_WBWB'
p379
(dp380
g5
(lp381
sg7
(lp382
sg9
(lp383
sg11
(lp384
sg13
(lp385
ssS'Suu8_chi3_ZTZT'
p386
(dp387
g5
(lp388
sg7
(lp389
sg9
(lp390
sg11
(lp391
sg13
(lp392
ssS'Suu6_chi2p5_HTZT'
p393
(dp394
g5
(lp395
sg7
(lp396
sg9
(lp397
sg11
(lp398
sg13
(lp399
ssS'Suu7_chi1_WBWB'
p400
(dp401
g5
(lp402
sg7
(lp403
sg9
(lp404
sg11
(lp405
sg13
(lp406
ssS'Suu7_chi2p5_WBZT'
p407
(dp408
g5
(lp409
sg7
(lp410
sg9
(lp411
sg11
(lp412
sg13
(lp413
ssS'Suu7_chi1p5_HTHT'
p414
(dp415
g5
(lp416
sg7
(lp417
sg9
(lp418
sg11
(lp419
sg13
(lp420
ssS'Suu5_chi1_HTZT'
p421
(dp422
g5
(lp423
sg7
(lp424
sg9
(lp425
sg11
(lp426
sg13
(lp427
ssS'Suu6_chi1p5_HTZT'
p428
(dp429
g5
(lp430
sg7
(lp431
sg9
(lp432
sg11
(lp433
sg13
(lp434
ssS'Suu8_chi2p5_WBZT'
p435
(dp436
g5
(lp437
sg7
(lp438
sg9
(lp439
sg11
(lp440
sg13
(lp441
ssS'Suu5_chi1_WBHT'
p442
(dp443
g5
(lp444
sg7
(lp445
sg9
(lp446
sg11
(lp447
sg13
(lp448
ssS'Suu7_chi1p5_WBWB'
p449
(dp450
g5
(lp451
sg7
(lp452
sg9
(lp453
sg11
(lp454
sg13
(lp455
ssS'Suu8_chi1p5_HTHT'
p456
(dp457
g5
(lp458
sg7
(lp459
sg9
(lp460
sg11
(lp461
sg13
(lp462
ssS'Suu4_chi1_WBZT'
p463
(dp464
g5
(lp465
sg7
(lp466
sg9
(lp467
sg11
(lp468
sg13
(lp469
ssS'Suu6_chi2p5_HTHT'
p470
(dp471
g5
(lp472
sg7
(lp473
sg9
(lp474
sg11
(lp475
sg13
(lp476
ssS'Suu5_chi2_HTHT'
p477
(dp478
g5
(lp479
sg7
(lp480
sg9
(lp481
sg11
(lp482
sg13
(lp483
ssS'Suu6_chi1p5_WBZT'
p484
(dp485
g5
(lp486
sg7
(lp487
sg9
(lp488
sg11
(lp489
sg13
(lp490
ssS'Suu8_chi1_WBWB'
p491
(dp492
g5
(lp493
sg7
(lp494
sg9
(lp495
sg11
(lp496
sg13
(lp497
ssS'Suu6_chi1_WBWB'
p498
(dp499
g5
(lp500
sg7
(lp501
sg9
(lp502
sg11
(lp503
sg13
(lp504
ssS'Suu8_chi2_WBWB'
p505
(dp506
g5
(lp507
sg7
(lp508
sg9
(lp509
sg11
(lp510
sg13
(lp511
ssS'Suu6_chi2_ZTZT'
p512
(dp513
g5
(lp514
sg7
(lp515
sg9
(lp516
sg11
(lp517
sg13
(lp518
ssS'Suu6_chi2p5_WBWB'
p519
(dp520
g5
(lp521
sg7
(lp522
sg9
(lp523
sg11
(lp524
sg13
(lp525
ssS'Suu6_chi1_WBHT'
p526
(dp527
g5
(lp528
sg7
(lp529
sg9
(lp530
sg11
(lp531
sg13
(lp532
ssS'Suu7_chi2p5_HTZT'
p533
(dp534
g5
(lp535
sg7
(lp536
sg9
(lp537
sg11
(lp538
sg13
(lp539
ssS'Suu8_chi2p5_ZTZT'
p540
(dp541
g5
(lp542
sg7
(lp543
sg9
(lp544
sg11
(lp545
sg13
(lp546
ssS'Suu5_chi2_WBHT'
p547
(dp548
g5
(lp549
sg7
(lp550
sg9
(lp551
sg11
(lp552
sg13
(lp553
ssS'Suu8_chi2_HTHT'
p554
(dp555
g5
(lp556
sg7
(lp557
sg9
(lp558
sg11
(lp559
sg13
(lp560
ssS'Suu7_chi2_HTHT'
p561
(dp562
g5
(lp563
sg7
(lp564
sg9
(lp565
sg11
(lp566
sg13
(lp567
ssS'Suu7_chi2_WBZT'
p568
(dp569
g5
(lp570
sg7
(lp571
sg9
(lp572
sg11
(lp573
sg13
(lp574
ssS'Suu4_chi1p5_WBZT'
p575
(dp576
g5
(lp577
sg7
(lp578
sg9
(lp579
sg11
(lp580
sg13
(lp581
ssS'Suu8_chi1p5_HTZT'
p582
(dp583
g5
(lp584
sg7
(lp585
sg9
(lp586
sg11
(lp587
sg13
(lp588
ssS'Suu7_chi1p5_WBHT'
p589
(dp590
g5
(lp591
sg7
(lp592
sg9
(lp593
sg11
(lp594
sg13
(lp595
ssS'Suu4_chi1_HTHT'
p596
(dp597
g5
(lp598
sg7
(lp599
sg9
(lp600
sg11
(lp601
sg13
(lp602
ssS'Suu7_chi2_WBHT'
p603
(dp604
g5
(lp605
sg7
(lp606
sg9
(lp607
sg11
(lp608
sg13
(lp609
ssS'Suu6_chi1p5_HTHT'
p610
(dp611
g5
(lp612
sg7
(lp613
sg9
(lp614
sg11
(lp615
sg13
(lp616
ssS'Suu6_chi1p5_WBHT'
p617
(dp618
g5
(lp619
sg7
(lp620
sg9
(lp621
sg11
(lp622
sg13
(lp623
ssS'Suu7_chi2_WBWB'
p624
(dp625
g5
(lp626
sg7
(lp627
sg9
(lp628
sg11
(lp629
sg13
(lp630
ssS'Suu8_chi2p5_WBHT'
p631
(dp632
g5
(lp633
sg7
(lp634
sg9
(lp635
sg11
(lp636
sg13
(lp637
ssS'Suu7_chi1p5_HTZT'
p638
(dp639
g5
(lp640
sg7
(lp641
sg9
(lp642
sg11
(lp643
sg13
(lp644
ssS'Suu4_chi1_WBWB'
p645
(dp646
g5
(lp647
sg7
(lp648
sg9
(lp649
sg11
(lp650
sg13
(lp651
ssS'Suu5_chi2_HTZT'
p652
(dp653
g5
(lp654
sg7
(lp655
sg9
(lp656
sg11
(lp657
sg13
(lp658
ssS'Suu5_chi1_HTHT'
p659
(dp660
g5
(lp661
sg7
(lp662
sg9
(lp663
sg11
(lp664
sg13
(lp665
ssS'Suu8_chi2_WBZT'
p666
(dp667
g5
(lp668
sg7
(lp669
sg9
(lp670
sg11
(lp671
sg13
(lp672
ssS'Suu5_chi1p5_WBZT'
p673
(dp674
g5
(lp675
sg7
(lp676
sg9
(lp677
sg11
(lp678
sg13
(lp679
ssS'Suu5_chi1_ZTZT'
p680
(dp681
g5
(lp682
sg7
(lp683
sg9
(lp684
sg11
(lp685
sg13
(lp686
ssS'Suu7_chi1_WBHT'
p687
(dp688
g5
(lp689
sg7
(lp690
sg9
(lp691
sg11
(lp692
sg13
(lp693
ssS'Suu5_chi1_WBWB'
p694
(dp695
g5
(lp696
sg7
(lp697
sg9
(lp698
sg11
(lp699
sg13
(lp700
ssS'Suu5_chi2_WBZT'
p701
(dp702
g5
(lp703
sg7
(lp704
sg9
(lp705
sg11
(lp706
sg13
(lp707
ssS'Suu7_chi2p5_HTHT'
p708
(dp709
g5
(lp710
sg7
(lp711
sg9
(lp712
sg11
(lp713
sg13
(lp714
ssS'Suu7_chi2_ZTZT'
p715
(dp716
g5
(lp717
sg7
(lp718
sg9
(lp719
sg11
(lp720
sg13
(lp721
ssS'Suu6_chi1_HTZT'
p722
(dp723
g5
(lp724
sg7
(lp725
sg9
(lp726
sg11
(lp727
sg13
(lp728
ssS'Suu8_chi1p5_ZTZT'
p729
(dp730
g5
(lp731
sg7
(lp732
sg9
(lp733
sg11
(lp734
sg13
(lp735
ssS'Suu7_chi3_HTZT'
p736
(dp737
g5
(lp738
sg7
(lp739
sg9
(lp740
sg11
(lp741
sg13
(lp742
ssS'Suu7_chi3_ZTZT'
p743
(dp744
g5
(lp745
sg7
(lp746
sg9
(lp747
sg11
(lp748
sg13
(lp749
ssS'Suu6_chi2p5_WBHT'
p750
(dp751
g5
(lp752
sg7
(lp753
sg9
(lp754
sg11
(lp755
sg13
(lp756
ssS'Suu7_chi1p5_ZTZT'
p757
(dp758
g5
(lp759
sg7
(lp760
sg9
(lp761
sg11
(lp762
sg13
(lp763
ssS'Suu8_chi3_WBZT'
p764
(dp765
g5
(lp766
sg7
(lp767
sg9
(lp768
sg11
(lp769
sg13
(lp770
ssS'Suu6_chi1_ZTZT'
p771
(dp772
g5
(lp773
sg7
(lp774
sg9
(lp775
sg11
(lp776
sg13
(lp777
ssS'Suu8_chi1p5_WBWB'
p778
(dp779
g5
(lp780
sg7
(lp781
sg9
(lp782
sg11
(lp783
sg13
(lp784
ssS'Suu6_chi2_WBZT'
p785
(dp786
g5
(lp787
sg7
(lp788
sg9
(lp789
sg11
(lp790
sg13
(lp791
ssS'Suu8_chi1p5_WBHT'
p792
(dp793
g5
(lp794
sg7
(lp795
sg9
(lp796
sg11
(lp797
sg13
(lp798
sssS'2017'
p799
(dp800
S'Suu6_chi2_WBHT'
p801
(dp802
g5
(lp803
sg7
(lp804
sg9
(lp805
sg11
(lp806
sg13
(lp807
ssS'Suu8_chi2p5_WBWB'
p808
(dp809
g5
(lp810
sg7
(lp811
sg9
(lp812
sg11
(lp813
sg13
(lp814
ssS'Suu6_chi2_WBWB'
p815
(dp816
g5
(lp817
sg7
(lp818
sg9
(lp819
sg11
(lp820
sg13
(lp821
ssS'Suu4_chi1p5_WBWB'
p822
(dp823
g5
(lp824
sg7
(lp825
sg9
(lp826
sg11
(lp827
sg13
(lp828
ssS'Suu7_chi1_WBZT'
p829
(dp830
g5
(lp831
sg7
(lp832
sg9
(lp833
sg11
(lp834
sg13
(lp835
ssS'Suu8_chi2p5_HTHT'
p836
(dp837
g5
(lp838
sg7
(lp839
sg9
(lp840
sg11
(lp841
sg13
(lp842
ssS'Suu8_chi3_WBWB'
p843
(dp844
g5
(lp845
sg7
(lp846
sg9
(lp847
sg11
(lp848
sg13
(lp849
ssS'Suu6_chi1p5_WBWB'
p850
(dp851
g5
(lp852
sg7
(lp853
sg9
(lp854
sg11
(lp855
sg13
(lp856
ssS'Suu6_chi1_WBZT'
p857
(dp858
g5
(lp859
sg7
(lp860
sg9
(lp861
sg11
(lp862
sg13
(lp863
ssS'Suu7_chi3_WBHT'
p864
(dp865
g5
(lp866
sg7
(lp867
sg9
(lp868
sg11
(lp869
sg13
(lp870
ssS'Suu4_chi1p5_HTZT'
p871
(dp872
g5
(lp873
sg7
(lp874
sg9
(lp875
sg11
(lp876
sg13
(lp877
ssS'Suu8_chi1p5_WBZT'
p878
(dp879
g5
(lp880
sg7
(lp881
sg9
(lp882
sg11
(lp883
sg13
(lp884
ssS'Suu7_chi1_ZTZT'
p885
(dp886
g5
(lp887
sg7
(lp888
sg9
(lp889
sg11
(lp890
sg13
(lp891
ssS'Suu8_chi1_HTHT'
p892
(dp893
g5
(lp894
sg7
(lp895
sg9
(lp896
sg11
(lp897
sg13
(lp898
ssS'Suu7_chi2_HTZT'
p899
(dp900
g5
(lp901
sg7
(lp902
sg9
(lp903
sg11
(lp904
sg13
(lp905
ssS'Suu7_chi1p5_WBZT'
p906
(dp907
g5
(lp908
sg7
(lp909
sg9
(lp910
sg11
(lp911
sg13
(lp912
ssS'Suu8_chi1_WBZT'
p913
(dp914
g5
(lp915
sg7
(lp916
sg9
(lp917
sg11
(lp918
sg13
(lp919
ssS'Suu5_chi2_ZTZT'
p920
(dp921
g5
(lp922
sg7
(lp923
sg9
(lp924
sg11
(lp925
sg13
(lp926
ssS'Suu8_chi2_ZTZT'
p927
(dp928
g5
(lp929
sg7
(lp930
sg9
(lp931
sg11
(lp932
sg13
(lp933
ssS'Suu8_chi2p5_HTZT'
p934
(dp935
g5
(lp936
sg7
(lp937
sg9
(lp938
sg11
(lp939
sg13
(lp940
ssS'Suu4_chi1p5_HTHT'
p941
(dp942
g5
(lp943
sg7
(lp944
sg9
(lp945
sg11
(lp946
sg13
(lp947
ssS'Suu8_chi1_WBHT'
p948
(dp949
g5
(lp950
sg7
(lp951
sg9
(lp952
sg11
(lp953
sg13
(lp954
ssS'Suu8_chi3_WBHT'
p955
(dp956
g5
(lp957
sg7
(lp958
sg9
(lp959
sg11
(lp960
sg13
(lp961
ssS'Suu7_chi1_HTHT'
p962
(dp963
g5
(lp964
sg7
(lp965
sg9
(lp966
sg11
(lp967
sg13
(lp968
ssS'Suu7_chi2p5_WBHT'
p969
(dp970
g5
(lp971
sg7
(lp972
sg9
(lp973
sg11
(lp974
sg13
(lp975
ssS'Suu7_chi3_HTHT'
p976
(dp977
g5
(lp978
sg7
(lp979
sg9
(lp980
sg11
(lp981
sg13
(lp982
ssS'Suu4_chi1_HTZT'
p983
(dp984
g5
(lp985
sg7
(lp986
sg9
(lp987
sg11
(lp988
sg13
(lp989
ssS'Suu6_chi1_HTHT'
p990
(dp991
g5
(lp992
sg7
(lp993
sg9
(lp994
sg11
(lp995
sg13
(lp996
ssS'Suu4_chi1_ZTZT'
p997
(dp998
g5
(lp999
sg7
(lp1000
sg9
(lp1001
sg11
(lp1002
sg13
(lp1003
ssS'Suu5_chi1p5_HTZT'
p1004
(dp1005
g5
(lp1006
sg7
(lp1007
sg9
(lp1008
sg11
(lp1009
sg13
(lp1010
ssS'Suu5_chi1p5_WBHT'
p1011
(dp1012
g5
(lp1013
sg7
(lp1014
sg9
(lp1015
sg11
(lp1016
sg13
(lp1017
ssS'Suu7_chi3_WBZT'
p1018
(dp1019
g5
(lp1020
sg7
(lp1021
sg9
(lp1022
sg11
(lp1023
sg13
(lp1024
ssS'Suu6_chi2_HTHT'
p1025
(dp1026
g5
(lp1027
sg7
(lp1028
sg9
(lp1029
sg11
(lp1030
sg13
(lp1031
ssS'Suu5_chi1p5_ZTZT'
p1032
(dp1033
g5
(lp1034
sg7
(lp1035
sg9
(lp1036
sg11
(lp1037
sg13
(lp1038
ssS'Suu6_chi1p5_ZTZT'
p1039
(dp1040
g5
(lp1041
sg7
(lp1042
sg9
(lp1043
sg11
(lp1044
sg13
(lp1045
ssS'Suu4_chi1p5_ZTZT'
p1046
(dp1047
g5
(lp1048
sg7
(lp1049
sg9
(lp1050
sg11
(lp1051
sg13
(lp1052
ssS'Suu8_chi2_HTZT'
p1053
(dp1054
g5
(lp1055
sg7
(lp1056
sg9
(lp1057
sg11
(lp1058
sg13
(lp1059
ssS'Suu8_chi3_HTZT'
p1060
(dp1061
g5
(lp1062
sg7
(lp1063
sg9
(lp1064
sg11
(lp1065
sg13
(lp1066
ssS'Suu6_chi2p5_ZTZT'
p1067
(dp1068
g5
(lp1069
sg7
(lp1070
sg9
(lp1071
sg11
(lp1072
sg13
(lp1073
ssS'Suu7_chi1_HTZT'
p1074
(dp1075
g5
(lp1076
sg7
(lp1077
sg9
(lp1078
sg11
(lp1079
sg13
(lp1080
ssS'Suu6_chi2p5_WBZT'
p1081
(dp1082
g5
(lp1083
sg7
(lp1084
sg9
(lp1085
sg11
(lp1086
sg13
(lp1087
ssS'Suu4_chi1p5_WBHT'
p1088
(dp1089
g5
(lp1090
sg7
(lp1091
sg9
(lp1092
sg11
(lp1093
sg13
(lp1094
ssS'Suu5_chi1p5_HTHT'
p1095
(dp1096
g5
(lp1097
sg7
(lp1098
sg9
(lp1099
sg11
(lp1100
sg13
(lp1101
ssS'Suu5_chi2_WBWB'
p1102
(dp1103
g5
(lp1104
sg7
(lp1105
sg9
(lp1106
sg11
(lp1107
sg13
(lp1108
ssS'Suu8_chi1_HTZT'
p1109
(dp1110
g5
(lp1111
sg7
(lp1112
sg9
(lp1113
sg11
(lp1114
sg13
(lp1115
ssS'Suu4_chi1_WBHT'
p1116
(dp1117
g5
(lp1118
sg7
(lp1119
sg9
(lp1120
sg11
(lp1121
sg13
(lp1122
ssS'Suu7_chi2p5_WBWB'
p1123
(dp1124
g5
(lp1125
sg7
(lp1126
sg9
(lp1127
sg11
(lp1128
sg13
(lp1129
ssS'Suu8_chi2_WBHT'
p1130
(dp1131
g5
(lp1132
sg7
(lp1133
sg9
(lp1134
sg11
(lp1135
sg13
(lp1136
ssS'Suu7_chi2p5_ZTZT'
p1137
(dp1138
g5
(lp1139
sg7
(lp1140
sg9
(lp1141
sg11
(lp1142
sg13
(lp1143
ssS'Suu5_chi1_WBZT'
p1144
(dp1145
g5
(lp1146
sg7
(lp1147
sg9
(lp1148
sg11
(lp1149
sg13
(lp1150
ssS'Suu5_chi1p5_WBWB'
p1151
(dp1152
g5
(lp1153
sg7
(lp1154
sg9
(lp1155
sg11
(lp1156
sg13
(lp1157
ssS'Suu8_chi1_ZTZT'
p1158
(dp1159
g5
(lp1160
sg7
(lp1161
sg9
(lp1162
sg11
(lp1163
sg13
(lp1164
ssS'Suu8_chi3_HTHT'
p1165
(dp1166
g5
(lp1167
sg7
(lp1168
sg9
(lp1169
sg11
(lp1170
sg13
(lp1171
ssS'Suu7_chi3_WBWB'
p1172
(dp1173
g5
(lp1174
sg7
(lp1175
sg9
(lp1176
sg11
(lp1177
sg13
(lp1178
ssS'Suu8_chi3_ZTZT'
p1179
(dp1180
g5
(lp1181
sg7
(lp1182
sg9
(lp1183
sg11
(lp1184
sg13
(lp1185
ssS'Suu6_chi2p5_HTZT'
p1186
(dp1187
g5
(lp1188
sg7
(lp1189
sg9
(lp1190
sg11
(lp1191
sg13
(lp1192
ssS'Suu7_chi1_WBWB'
p1193
(dp1194
g5
(lp1195
sg7
(lp1196
sg9
(lp1197
sg11
(lp1198
sg13
(lp1199
ssS'Suu7_chi2p5_WBZT'
p1200
(dp1201
g5
(lp1202
sg7
(lp1203
sg9
(lp1204
sg11
(lp1205
sg13
(lp1206
ssS'Suu7_chi1p5_HTHT'
p1207
(dp1208
g5
(lp1209
sg7
(lp1210
sg9
(lp1211
sg11
(lp1212
sg13
(lp1213
ssS'Suu5_chi1_HTZT'
p1214
(dp1215
g5
(lp1216
sg7
(lp1217
sg9
(lp1218
sg11
(lp1219
sg13
(lp1220
ssS'Suu6_chi1p5_HTZT'
p1221
(dp1222
g5
(lp1223
sg7
(lp1224
sg9
(lp1225
sg11
(lp1226
sg13
(lp1227
ssS'Suu8_chi2p5_WBZT'
p1228
(dp1229
g5
(lp1230
sg7
(lp1231
sg9
(lp1232
sg11
(lp1233
sg13
(lp1234
ssS'Suu5_chi1_WBHT'
p1235
(dp1236
g5
(lp1237
sg7
(lp1238
sg9
(lp1239
sg11
(lp1240
sg13
(lp1241
ssS'Suu7_chi1p5_WBWB'
p1242
(dp1243
g5
(lp1244
sg7
(lp1245
sg9
(lp1246
sg11
(lp1247
sg13
(lp1248
ssS'Suu8_chi1p5_HTHT'
p1249
(dp1250
g5
(lp1251
sg7
(lp1252
sg9
(lp1253
sg11
(lp1254
sg13
(lp1255
ssS'Suu4_chi1_WBZT'
p1256
(dp1257
g5
(lp1258
sg7
(lp1259
sg9
(lp1260
sg11
(lp1261
sg13
(lp1262
ssS'Suu6_chi2p5_HTHT'
p1263
(dp1264
g5
(lp1265
sg7
(lp1266
sg9
(lp1267
sg11
(lp1268
sg13
(lp1269
ssS'Suu5_chi2_HTHT'
p1270
(dp1271
g5
(lp1272
sg7
(lp1273
sg9
(lp1274
sg11
(lp1275
sg13
(lp1276
ssS'Suu6_chi1p5_WBZT'
p1277
(dp1278
g5
(lp1279
sg7
(lp1280
sg9
(lp1281
sg11
(lp1282
sg13
(lp1283
ssS'Suu8_chi1_WBWB'
p1284
(dp1285
g5
(lp1286
sg7
(lp1287
sg9
(lp1288
sg11
(lp1289
sg13
(lp1290
ssS'Suu6_chi1_WBWB'
p1291
(dp1292
g5
(lp1293
sg7
(lp1294
sg9
(lp1295
sg11
(lp1296
sg13
(lp1297
ssS'Suu8_chi2_WBWB'
p1298
(dp1299
g5
(lp1300
sg7
(lp1301
sg9
(lp1302
sg11
(lp1303
sg13
(lp1304
ssS'Suu6_chi2_ZTZT'
p1305
(dp1306
g5
(lp1307
sg7
(lp1308
sg9
(lp1309
sg11
(lp1310
sg13
(lp1311
ssS'Suu6_chi2p5_WBWB'
p1312
(dp1313
g5
(lp1314
sg7
(lp1315
sg9
(lp1316
sg11
(lp1317
sg13
(lp1318
ssS'Suu6_chi1_WBHT'
p1319
(dp1320
g5
(lp1321
sg7
(lp1322
sg9
(lp1323
sg11
(lp1324
sg13
(lp1325
ssS'Suu7_chi2p5_HTZT'
p1326
(dp1327
g5
(lp1328
sg7
(lp1329
sg9
(lp1330
sg11
(lp1331
sg13
(lp1332
ssS'Suu8_chi2p5_ZTZT'
p1333
(dp1334
g5
(lp1335
sg7
(lp1336
sg9
(lp1337
sg11
(lp1338
sg13
(lp1339
ssS'Suu5_chi2_WBHT'
p1340
(dp1341
g5
(lp1342
sg7
(lp1343
sg9
(lp1344
sg11
(lp1345
sg13
(lp1346
ssS'Suu8_chi2_HTHT'
p1347
(dp1348
g5
(lp1349
sg7
(lp1350
sg9
(lp1351
sg11
(lp1352
sg13
(lp1353
ssS'Suu7_chi2_HTHT'
p1354
(dp1355
g5
(lp1356
sg7
(lp1357
sg9
(lp1358
sg11
(lp1359
sg13
(lp1360
ssS'Suu7_chi2_WBZT'
p1361
(dp1362
g5
(lp1363
sg7
(lp1364
sg9
(lp1365
sg11
(lp1366
sg13
(lp1367
ssS'Suu4_chi1p5_WBZT'
p1368
(dp1369
g5
(lp1370
sg7
(lp1371
sg9
(lp1372
sg11
(lp1373
sg13
(lp1374
ssS'Suu8_chi1p5_HTZT'
p1375
(dp1376
g5
(lp1377
sg7
(lp1378
sg9
(lp1379
sg11
(lp1380
sg13
(lp1381
ssS'Suu7_chi1p5_WBHT'
p1382
(dp1383
g5
(lp1384
sg7
(lp1385
sg9
(lp1386
sg11
(lp1387
sg13
(lp1388
ssS'Suu4_chi1_HTHT'
p1389
(dp1390
g5
(lp1391
sg7
(lp1392
sg9
(lp1393
sg11
(lp1394
sg13
(lp1395
ssS'Suu7_chi2_WBHT'
p1396
(dp1397
g5
(lp1398
sg7
(lp1399
sg9
(lp1400
sg11
(lp1401
sg13
(lp1402
ssS'Suu6_chi1p5_HTHT'
p1403
(dp1404
g5
(lp1405
sg7
(lp1406
sg9
(lp1407
sg11
(lp1408
sg13
(lp1409
ssS'Suu6_chi1p5_WBHT'
p1410
(dp1411
g5
(lp1412
sg7
(lp1413
sg9
(lp1414
sg11
(lp1415
sg13
(lp1416
ssS'Suu7_chi2_WBWB'
p1417
(dp1418
g5
(lp1419
sg7
(lp1420
sg9
(lp1421
sg11
(lp1422
sg13
(lp1423
ssS'Suu8_chi2p5_WBHT'
p1424
(dp1425
g5
(lp1426
sg7
(lp1427
sg9
(lp1428
sg11
(lp1429
sg13
(lp1430
ssS'Suu7_chi1p5_HTZT'
p1431
(dp1432
g5
(lp1433
sg7
(lp1434
sg9
(lp1435
sg11
(lp1436
sg13
(lp1437
ssS'Suu4_chi1_WBWB'
p1438
(dp1439
g5
(lp1440
sg7
(lp1441
sg9
(lp1442
sg11
(lp1443
sg13
(lp1444
ssS'Suu5_chi2_HTZT'
p1445
(dp1446
g5
(lp1447
sg7
(lp1448
sg9
(lp1449
sg11
(lp1450
sg13
(lp1451
ssS'Suu5_chi1_HTHT'
p1452
(dp1453
g5
(lp1454
sg7
(lp1455
sg9
(lp1456
sg11
(lp1457
sg13
(lp1458
ssS'Suu8_chi2_WBZT'
p1459
(dp1460
g5
(lp1461
sg7
(lp1462
sg9
(lp1463
sg11
(lp1464
sg13
(lp1465
ssS'Suu5_chi1p5_WBZT'
p1466
(dp1467
g5
(lp1468
sg7
(lp1469
sg9
(lp1470
sg11
(lp1471
sg13
(lp1472
ssS'Suu5_chi1_ZTZT'
p1473
(dp1474
g5
(lp1475
sg7
(lp1476
sg9
(lp1477
sg11
(lp1478
sg13
(lp1479
ssS'Suu7_chi1_WBHT'
p1480
(dp1481
g5
(lp1482
sg7
(lp1483
sg9
(lp1484
sg11
(lp1485
sg13
(lp1486
ssS'Suu5_chi1_WBWB'
p1487
(dp1488
g5
(lp1489
sg7
(lp1490
sg9
(lp1491
sg11
(lp1492
sg13
(lp1493
ssS'Suu5_chi2_WBZT'
p1494
(dp1495
g5
(lp1496
sg7
(lp1497
sg9
(lp1498
sg11
(lp1499
sg13
(lp1500
ssS'Suu7_chi2p5_HTHT'
p1501
(dp1502
g5
(lp1503
sg7
(lp1504
sg9
(lp1505
sg11
(lp1506
sg13
(lp1507
ssS'Suu7_chi2_ZTZT'
p1508
(dp1509
g5
(lp1510
sg7
(lp1511
sg9
(lp1512
sg11
(lp1513
sg13
(lp1514
ssS'Suu6_chi1_HTZT'
p1515
(dp1516
g5
(lp1517
sg7
(lp1518
sg9
(lp1519
sg11
(lp1520
sg13
(lp1521
ssS'Suu8_chi1p5_ZTZT'
p1522
(dp1523
g5
(lp1524
sg7
(lp1525
sg9
(lp1526
sg11
(lp1527
sg13
(lp1528
ssS'Suu7_chi3_HTZT'
p1529
(dp1530
g5
(lp1531
sg7
(lp1532
sg9
(lp1533
sg11
(lp1534
sg13
(lp1535
ssS'Suu7_chi3_ZTZT'
p1536
(dp1537
g5
(lp1538
sg7
(lp1539
sg9
(lp1540
sg11
(lp1541
sg13
(lp1542
ssS'Suu6_chi2p5_WBHT'
p1543
(dp1544
g5
(lp1545
sg7
(lp1546
sg9
(lp1547
sg11
(lp1548
sg13
(lp1549
ssS'Suu7_chi1p5_ZTZT'
p1550
(dp1551
g5
(lp1552
sg7
(lp1553
sg9
(lp1554
sg11
(lp1555
sg13
(lp1556
ssS'Suu8_chi3_WBZT'
p1557
(dp1558
g5
(lp1559
sg7
(lp1560
sg9
(lp1561
sg11
(lp1562
sg13
(lp1563
ssS'Suu6_chi1_ZTZT'
p1564
(dp1565
g5
(lp1566
sg7
(lp1567
sg9
(lp1568
sg11
(lp1569
sg13
(lp1570
ssS'Suu8_chi1p5_WBWB'
p1571
(dp1572
g5
(lp1573
sg7
(lp1574
sg9
(lp1575
sg11
(lp1576
sg13
(lp1577
ssS'Suu6_chi2_WBZT'
p1578
(dp1579
g5
(lp1580
sg7
(lp1581
sg9
(lp1582
sg11
(lp1583
sg13
(lp1584
ssS'Suu8_chi1p5_WBHT'
p1585
(dp1586
g5
(lp1587
sg7
(lp1588
sg9
(lp1589
sg11
(lp1590
sg13
(lp1591
sssS'2016'
p1592
(dp1593
S'Suu6_chi2_WBHT'
p1594
(dp1595
g5
(lp1596
sg7
(lp1597
sg9
(lp1598
sg11
(lp1599
sg13
(lp1600
ssS'Suu8_chi2p5_WBWB'
p1601
(dp1602
g5
(lp1603
sg7
(lp1604
sg9
(lp1605
sg11
(lp1606
sg13
(lp1607
ssS'Suu6_chi2_WBWB'
p1608
(dp1609
g5
(lp1610
sg7
(lp1611
sg9
(lp1612
sg11
(lp1613
sg13
(lp1614
ssS'Suu4_chi1p5_WBWB'
p1615
(dp1616
g5
(lp1617
sg7
(lp1618
sg9
(lp1619
sg11
(lp1620
sg13
(lp1621
ssS'Suu7_chi1_WBZT'
p1622
(dp1623
g5
(lp1624
sg7
(lp1625
sg9
(lp1626
sg11
(lp1627
sg13
(lp1628
ssS'Suu8_chi2p5_HTHT'
p1629
(dp1630
g5
(lp1631
sg7
(lp1632
sg9
(lp1633
sg11
(lp1634
sg13
(lp1635
ssS'Suu8_chi3_WBWB'
p1636
(dp1637
g5
(lp1638
sg7
(lp1639
sg9
(lp1640
sg11
(lp1641
sg13
(lp1642
ssS'Suu6_chi1p5_WBWB'
p1643
(dp1644
g5
(lp1645
sg7
(lp1646
sg9
(lp1647
sg11
(lp1648
sg13
(lp1649
ssS'Suu6_chi1_WBZT'
p1650
(dp1651
g5
(lp1652
sg7
(lp1653
sg9
(lp1654
sg11
(lp1655
sg13
(lp1656
ssS'Suu7_chi3_WBHT'
p1657
(dp1658
g5
(lp1659
sg7
(lp1660
sg9
(lp1661
sg11
(lp1662
sg13
(lp1663
ssS'Suu4_chi1p5_HTZT'
p1664
(dp1665
g5
(lp1666
sg7
(lp1667
sg9
(lp1668
sg11
(lp1669
sg13
(lp1670
ssS'Suu8_chi1p5_WBZT'
p1671
(dp1672
g5
(lp1673
sg7
(lp1674
sg9
(lp1675
sg11
(lp1676
sg13
(lp1677
ssS'Suu7_chi1_ZTZT'
p1678
(dp1679
g5
(lp1680
sg7
(lp1681
sg9
(lp1682
sg11
(lp1683
sg13
(lp1684
ssS'Suu8_chi1_HTHT'
p1685
(dp1686
g5
(lp1687
sg7
(lp1688
sg9
(lp1689
sg11
(lp1690
sg13
(lp1691
ssS'Suu7_chi2_HTZT'
p1692
(dp1693
g5
(lp1694
sg7
(lp1695
sg9
(lp1696
sg11
(lp1697
sg13
(lp1698
ssS'Suu7_chi1p5_WBZT'
p1699
(dp1700
g5
(lp1701
sg7
(lp1702
sg9
(lp1703
sg11
(lp1704
sg13
(lp1705
ssS'Suu8_chi1_WBZT'
p1706
(dp1707
g5
(lp1708
sg7
(lp1709
sg9
(lp1710
sg11
(lp1711
sg13
(lp1712
ssS'Suu5_chi2_ZTZT'
p1713
(dp1714
g5
(lp1715
sg7
(lp1716
sg9
(lp1717
sg11
(lp1718
sg13
(lp1719
ssS'Suu8_chi2_ZTZT'
p1720
(dp1721
g5
(lp1722
sg7
(lp1723
sg9
(lp1724
sg11
(lp1725
sg13
(lp1726
ssS'Suu8_chi2p5_HTZT'
p1727
(dp1728
g5
(lp1729
sg7
(lp1730
sg9
(lp1731
sg11
(lp1732
sg13
(lp1733
ssS'Suu4_chi1p5_HTHT'
p1734
(dp1735
g5
(lp1736
sg7
(lp1737
sg9
(lp1738
sg11
(lp1739
sg13
(lp1740
ssS'Suu8_chi1_WBHT'
p1741
(dp1742
g5
(lp1743
sg7
(lp1744
sg9
(lp1745
sg11
(lp1746
sg13
(lp1747
ssS'Suu8_chi3_WBHT'
p1748
(dp1749
g5
(lp1750
sg7
(lp1751
sg9
(lp1752
sg11
(lp1753
sg13
(lp1754
ssS'Suu7_chi1_HTHT'
p1755
(dp1756
g5
(lp1757
sg7
(lp1758
sg9
(lp1759
sg11
(lp1760
sg13
(lp1761
ssS'Suu7_chi2p5_WBHT'
p1762
(dp1763
g5
(lp1764
sg7
(lp1765
sg9
(lp1766
sg11
(lp1767
sg13
(lp1768
ssS'Suu7_chi3_HTHT'
p1769
(dp1770
g5
(lp1771
sg7
(lp1772
sg9
(lp1773
sg11
(lp1774
sg13
(lp1775
ssS'Suu4_chi1_HTZT'
p1776
(dp1777
g5
(lp1778
sg7
(lp1779
sg9
(lp1780
sg11
(lp1781
sg13
(lp1782
ssS'Suu6_chi1_HTHT'
p1783
(dp1784
g5
(lp1785
sg7
(lp1786
sg9
(lp1787
sg11
(lp1788
sg13
(lp1789
ssS'Suu4_chi1_ZTZT'
p1790
(dp1791
g5
(lp1792
sg7
(lp1793
sg9
(lp1794
sg11
(lp1795
sg13
(lp1796
ssS'Suu5_chi1p5_HTZT'
p1797
(dp1798
g5
(lp1799
sg7
(lp1800
sg9
(lp1801
sg11
(lp1802
sg13
(lp1803
ssS'Suu5_chi1p5_WBHT'
p1804
(dp1805
g5
(lp1806
sg7
(lp1807
sg9
(lp1808
sg11
(lp1809
sg13
(lp1810
ssS'Suu7_chi3_WBZT'
p1811
(dp1812
g5
(lp1813
sg7
(lp1814
sg9
(lp1815
sg11
(lp1816
sg13
(lp1817
ssS'Suu6_chi2_HTHT'
p1818
(dp1819
g5
(lp1820
sg7
(lp1821
sg9
(lp1822
sg11
(lp1823
sg13
(lp1824
ssS'Suu5_chi1p5_ZTZT'
p1825
(dp1826
g5
(lp1827
sg7
(lp1828
sg9
(lp1829
sg11
(lp1830
sg13
(lp1831
ssS'Suu6_chi1p5_ZTZT'
p1832
(dp1833
g5
(lp1834
sg7
(lp1835
sg9
(lp1836
sg11
(lp1837
sg13
(lp1838
ssS'Suu4_chi1p5_ZTZT'
p1839
(dp1840
g5
(lp1841
sg7
(lp1842
sg9
(lp1843
sg11
(lp1844
sg13
(lp1845
ssS'Suu8_chi2_HTZT'
p1846
(dp1847
g5
(lp1848
sg7
(lp1849
sg9
(lp1850
sg11
(lp1851
sg13
(lp1852
ssS'Suu8_chi3_HTZT'
p1853
(dp1854
g5
(lp1855
sg7
(lp1856
sg9
(lp1857
sg11
(lp1858
sg13
(lp1859
ssS'Suu6_chi2p5_ZTZT'
p1860
(dp1861
g5
(lp1862
sg7
(lp1863
sg9
(lp1864
sg11
(lp1865
sg13
(lp1866
ssS'Suu7_chi1_HTZT'
p1867
(dp1868
g5
(lp1869
sg7
(lp1870
sg9
(lp1871
sg11
(lp1872
sg13
(lp1873
ssS'Suu6_chi2p5_WBZT'
p1874
(dp1875
g5
(lp1876
sg7
(lp1877
sg9
(lp1878
sg11
(lp1879
sg13
(lp1880
ssS'Suu4_chi1p5_WBHT'
p1881
(dp1882
g5
(lp1883
sg7
(lp1884
sg9
(lp1885
sg11
(lp1886
sg13
(lp1887
ssS'Suu5_chi1p5_HTHT'
p1888
(dp1889
g5
(lp1890
sg7
(lp1891
sg9
(lp1892
sg11
(lp1893
sg13
(lp1894
ssS'Suu5_chi2_WBWB'
p1895
(dp1896
g5
(lp1897
sg7
(lp1898
sg9
(lp1899
sg11
(lp1900
sg13
(lp1901
ssS'Suu8_chi1_HTZT'
p1902
(dp1903
g5
(lp1904
sg7
(lp1905
sg9
(lp1906
sg11
(lp1907
sg13
(lp1908
ssS'Suu4_chi1_WBHT'
p1909
(dp1910
g5
(lp1911
sg7
(lp1912
sg9
(lp1913
sg11
(lp1914
sg13
(lp1915
ssS'Suu7_chi2p5_WBWB'
p1916
(dp1917
g5
(lp1918
sg7
(lp1919
sg9
(lp1920
sg11
(lp1921
sg13
(lp1922
ssS'Suu8_chi2_WBHT'
p1923
(dp1924
g5
(lp1925
sg7
(lp1926
sg9
(lp1927
sg11
(lp1928
sg13
(lp1929
ssS'Suu7_chi2p5_ZTZT'
p1930
(dp1931
g5
(lp1932
sg7
(lp1933
sg9
(lp1934
sg11
(lp1935
sg13
(lp1936
ssS'Suu5_chi1_WBZT'
p1937
(dp1938
g5
(lp1939
sg7
(lp1940
sg9
(lp1941
sg11
(lp1942
sg13
(lp1943
ssS'Suu5_chi1p5_WBWB'
p1944
(dp1945
g5
(lp1946
sg7
(lp1947
sg9
(lp1948
sg11
(lp1949
sg13
(lp1950
ssS'Suu8_chi1_ZTZT'
p1951
(dp1952
g5
(lp1953
sg7
(lp1954
sg9
(lp1955
sg11
(lp1956
sg13
(lp1957
ssS'Suu8_chi3_HTHT'
p1958
(dp1959
g5
(lp1960
sg7
(lp1961
sg9
(lp1962
sg11
(lp1963
sg13
(lp1964
ssS'Suu7_chi3_WBWB'
p1965
(dp1966
g5
(lp1967
sg7
(lp1968
sg9
(lp1969
sg11
(lp1970
sg13
(lp1971
ssS'Suu8_chi3_ZTZT'
p1972
(dp1973
g5
(lp1974
sg7
(lp1975
sg9
(lp1976
sg11
(lp1977
sg13
(lp1978
ssS'Suu6_chi2p5_HTZT'
p1979
(dp1980
g5
(lp1981
sg7
(lp1982
sg9
(lp1983
sg11
(lp1984
sg13
(lp1985
ssS'Suu7_chi1_WBWB'
p1986
(dp1987
g5
(lp1988
sg7
(lp1989
sg9
(lp1990
sg11
(lp1991
sg13
(lp1992
ssS'Suu7_chi2p5_WBZT'
p1993
(dp1994
g5
(lp1995
sg7
(lp1996
sg9
(lp1997
sg11
(lp1998
sg13
(lp1999
ssS'Suu7_chi1p5_HTHT'
p2000
(dp2001
g5
(lp2002
sg7
(lp2003
sg9
(lp2004
sg11
(lp2005
sg13
(lp2006
ssS'Suu5_chi1_HTZT'
p2007
(dp2008
g5
(lp2009
sg7
(lp2010
sg9
(lp2011
sg11
(lp2012
sg13
(lp2013
ssS'Suu6_chi1p5_HTZT'
p2014
(dp2015
g5
(lp2016
sg7
(lp2017
sg9
(lp2018
sg11
(lp2019
sg13
(lp2020
ssS'Suu8_chi2p5_WBZT'
p2021
(dp2022
g5
(lp2023
sg7
(lp2024
sg9
(lp2025
sg11
(lp2026
sg13
(lp2027
ssS'Suu5_chi1_WBHT'
p2028
(dp2029
g5
(lp2030
sg7
(lp2031
sg9
(lp2032
sg11
(lp2033
sg13
(lp2034
ssS'Suu7_chi1p5_WBWB'
p2035
(dp2036
g5
(lp2037
sg7
(lp2038
sg9
(lp2039
sg11
(lp2040
sg13
(lp2041
ssS'Suu8_chi1p5_HTHT'
p2042
(dp2043
g5
(lp2044
sg7
(lp2045
sg9
(lp2046
sg11
(lp2047
sg13
(lp2048
ssS'Suu4_chi1_WBZT'
p2049
(dp2050
g5
(lp2051
sg7
(lp2052
sg9
(lp2053
sg11
(lp2054
sg13
(lp2055
ssS'Suu6_chi2p5_HTHT'
p2056
(dp2057
g5
(lp2058
sg7
(lp2059
sg9
(lp2060
sg11
(lp2061
sg13
(lp2062
ssS'Suu5_chi2_HTHT'
p2063
(dp2064
g5
(lp2065
sg7
(lp2066
sg9
(lp2067
sg11
(lp2068
sg13
(lp2069
ssS'Suu6_chi1p5_WBZT'
p2070
(dp2071
g5
(lp2072
sg7
(lp2073
sg9
(lp2074
sg11
(lp2075
sg13
(lp2076
ssS'Suu8_chi1_WBWB'
p2077
(dp2078
g5
(lp2079
sg7
(lp2080
sg9
(lp2081
sg11
(lp2082
sg13
(lp2083
ssS'Suu6_chi1_WBWB'
p2084
(dp2085
g5
(lp2086
sg7
(lp2087
sg9
(lp2088
sg11
(lp2089
sg13
(lp2090
ssS'Suu8_chi2_WBWB'
p2091
(dp2092
g5
(lp2093
sg7
(lp2094
sg9
(lp2095
sg11
(lp2096
sg13
(lp2097
ssS'Suu6_chi2_ZTZT'
p2098
(dp2099
g5
(lp2100
sg7
(lp2101
sg9
(lp2102
sg11
(lp2103
sg13
(lp2104
ssS'Suu6_chi2p5_WBWB'
p2105
(dp2106
g5
(lp2107
sg7
(lp2108
sg9
(lp2109
sg11
(lp2110
sg13
(lp2111
ssS'Suu6_chi1_WBHT'
p2112
(dp2113
g5
(lp2114
sg7
(lp2115
sg9
(lp2116
sg11
(lp2117
sg13
(lp2118
ssS'Suu7_chi2p5_HTZT'
p2119
(dp2120
g5
(lp2121
sg7
(lp2122
sg9
(lp2123
sg11
(lp2124
sg13
(lp2125
ssS'Suu8_chi2p5_ZTZT'
p2126
(dp2127
g5
(lp2128
sg7
(lp2129
sg9
(lp2130
sg11
(lp2131
sg13
(lp2132
ssS'Suu5_chi2_WBHT'
p2133
(dp2134
g5
(lp2135
sg7
(lp2136
sg9
(lp2137
sg11
(lp2138
sg13
(lp2139
ssS'Suu8_chi2_HTHT'
p2140
(dp2141
g5
(lp2142
sg7
(lp2143
sg9
(lp2144
sg11
(lp2145
sg13
(lp2146
ssS'Suu7_chi2_HTHT'
p2147
(dp2148
g5
(lp2149
sg7
(lp2150
sg9
(lp2151
sg11
(lp2152
sg13
(lp2153
ssS'Suu7_chi2_WBZT'
p2154
(dp2155
g5
(lp2156
sg7
(lp2157
sg9
(lp2158
sg11
(lp2159
sg13
(lp2160
ssS'Suu4_chi1p5_WBZT'
p2161
(dp2162
g5
(lp2163
sg7
(lp2164
sg9
(lp2165
sg11
(lp2166
sg13
(lp2167
ssS'Suu8_chi1p5_HTZT'
p2168
(dp2169
g5
(lp2170
sg7
(lp2171
sg9
(lp2172
sg11
(lp2173
sg13
(lp2174
ssS'Suu7_chi1p5_WBHT'
p2175
(dp2176
g5
(lp2177
sg7
(lp2178
sg9
(lp2179
sg11
(lp2180
sg13
(lp2181
ssS'Suu4_chi1_HTHT'
p2182
(dp2183
g5
(lp2184
sg7
(lp2185
sg9
(lp2186
sg11
(lp2187
sg13
(lp2188
ssS'Suu7_chi2_WBHT'
p2189
(dp2190
g5
(lp2191
sg7
(lp2192
sg9
(lp2193
sg11
(lp2194
sg13
(lp2195
ssS'Suu6_chi1p5_HTHT'
p2196
(dp2197
g5
(lp2198
sg7
(lp2199
sg9
(lp2200
sg11
(lp2201
sg13
(lp2202
ssS'Suu6_chi1p5_WBHT'
p2203
(dp2204
g5
(lp2205
sg7
(lp2206
sg9
(lp2207
sg11
(lp2208
sg13
(lp2209
ssS'Suu7_chi2_WBWB'
p2210
(dp2211
g5
(lp2212
sg7
(lp2213
sg9
(lp2214
sg11
(lp2215
sg13
(lp2216
ssS'Suu8_chi2p5_WBHT'
p2217
(dp2218
g5
(lp2219
sg7
(lp2220
sg9
(lp2221
sg11
(lp2222
sg13
(lp2223
ssS'Suu7_chi1p5_HTZT'
p2224
(dp2225
g5
(lp2226
sg7
(lp2227
sg9
(lp2228
sg11
(lp2229
sg13
(lp2230
ssS'Suu4_chi1_WBWB'
p2231
(dp2232
g5
(lp2233
sg7
(lp2234
sg9
(lp2235
sg11
(lp2236
sg13
(lp2237
ssS'Suu5_chi2_HTZT'
p2238
(dp2239
g5
(lp2240
sg7
(lp2241
sg9
(lp2242
sg11
(lp2243
sg13
(lp2244
ssS'Suu5_chi1_HTHT'
p2245
(dp2246
g5
(lp2247
sg7
(lp2248
sg9
(lp2249
sg11
(lp2250
sg13
(lp2251
ssS'Suu8_chi2_WBZT'
p2252
(dp2253
g5
(lp2254
sg7
(lp2255
sg9
(lp2256
sg11
(lp2257
sg13
(lp2258
ssS'Suu5_chi1p5_WBZT'
p2259
(dp2260
g5
(lp2261
sg7
(lp2262
sg9
(lp2263
sg11
(lp2264
sg13
(lp2265
ssS'Suu5_chi1_ZTZT'
p2266
(dp2267
g5
(lp2268
sg7
(lp2269
sg9
(lp2270
sg11
(lp2271
sg13
(lp2272
ssS'Suu7_chi1_WBHT'
p2273
(dp2274
g5
(lp2275
sg7
(lp2276
sg9
(lp2277
sg11
(lp2278
sg13
(lp2279
ssS'Suu5_chi1_WBWB'
p2280
(dp2281
g5
(lp2282
sg7
(lp2283
sg9
(lp2284
sg11
(lp2285
sg13
(lp2286
ssS'Suu5_chi2_WBZT'
p2287
(dp2288
g5
(lp2289
sg7
(lp2290
sg9
(lp2291
sg11
(lp2292
sg13
(lp2293
ssS'Suu7_chi2p5_HTHT'
p2294
(dp2295
g5
(lp2296
sg7
(lp2297
sg9
(lp2298
sg11
(lp2299
sg13
(lp2300
ssS'Suu7_chi2_ZTZT'
p2301
(dp2302
g5
(lp2303
sg7
(lp2304
sg9
(lp2305
sg11
(lp2306
sg13
(lp2307
ssS'Suu6_chi1_HTZT'
p2308
(dp2309
g5
(lp2310
sg7
(lp2311
sg9
(lp2312
sg11
(lp2313
sg13
(lp2314
ssS'Suu8_chi1p5_ZTZT'
p2315
(dp2316
g5
(lp2317
sg7
(lp2318
sg9
(lp2319
sg11
(lp2320
sg13
(lp2321
ssS'Suu7_chi3_HTZT'
p2322
(dp2323
g5
(lp2324
sg7
(lp2325
sg9
(lp2326
sg11
(lp2327
sg13
(lp2328
ssS'Suu7_chi3_ZTZT'
p2329
(dp2330
g5
(lp2331
sg7
(lp2332
sg9
(lp2333
sg11
(lp2334
sg13
(lp2335
ssS'Suu6_chi2p5_WBHT'
p2336
(dp2337
g5
(lp2338
sg7
(lp2339
sg9
(lp2340
sg11
(lp2341
sg13
(lp2342
ssS'Suu7_chi1p5_ZTZT'
p2343
(dp2344
g5
(lp2345
sg7
(lp2346
sg9
(lp2347
sg11
(lp2348
sg13
(lp2349
ssS'Suu8_chi3_WBZT'
p2350
(dp2351
g5
(lp2352
sg7
(lp2353
sg9
(lp2354
sg11
(lp2355
sg13
(lp2356
ssS'Suu6_chi1_ZTZT'
p2357
(dp2358
g5
(lp2359
sg7
(lp2360
sg9
(lp2361
sg11
(lp2362
sg13
(lp2363
ssS'Suu8_chi1p5_WBWB'
p2364
(dp2365
g5
(lp2366
sg7
(lp2367
sg9
(lp2368
sg11
(lp2369
sg13
(lp2370
ssS'Suu6_chi2_WBZT'
p2371
(dp2372
g5
(lp2373
sg7
(lp2374
sg9
(lp2375
sg11
(lp2376
sg13
(lp2377
ssS'Suu8_chi1p5_WBHT'
p2378
(dp2379
g5
(lp2380
sg7
(lp2381
sg9
(lp2382
sg11
(lp2383
sg13
(lp2384
sssS'2018'
p2385
(dp2386
S'Suu6_chi2_WBHT'
p2387
(dp2388
g5
(lp2389
sg7
(lp2390
sg9
(lp2391
sg11
(lp2392
sg13
(lp2393
ssS'Suu8_chi2p5_WBWB'
p2394
(dp2395
g5
(lp2396
sg7
(lp2397
sg9
(lp2398
sg11
(lp2399
sg13
(lp2400
ssS'Suu6_chi2_WBWB'
p2401
(dp2402
g5
(lp2403
sg7
(lp2404
sg9
(lp2405
sg11
(lp2406
sg13
(lp2407
ssS'Suu4_chi1p5_WBWB'
p2408
(dp2409
g5
(lp2410
sg7
(lp2411
sg9
(lp2412
sg11
(lp2413
sg13
(lp2414
ssS'Suu7_chi1_WBZT'
p2415
(dp2416
g5
(lp2417
sg7
(lp2418
sg9
(lp2419
sg11
(lp2420
sg13
(lp2421
ssS'Suu8_chi2p5_HTHT'
p2422
(dp2423
g5
(lp2424
sg7
(lp2425
sg9
(lp2426
sg11
(lp2427
sg13
(lp2428
ssS'Suu8_chi3_WBWB'
p2429
(dp2430
g5
(lp2431
sg7
(lp2432
sg9
(lp2433
sg11
(lp2434
sg13
(lp2435
ssS'Suu6_chi1p5_WBWB'
p2436
(dp2437
g5
(lp2438
sg7
(lp2439
sg9
(lp2440
sg11
(lp2441
sg13
(lp2442
ssS'Suu6_chi1_WBZT'
p2443
(dp2444
g5
(lp2445
sg7
(lp2446
sg9
(lp2447
sg11
(lp2448
sg13
(lp2449
ssS'Suu7_chi3_WBHT'
p2450
(dp2451
g5
(lp2452
sg7
(lp2453
sg9
(lp2454
sg11
(lp2455
sg13
(lp2456
ssS'Suu4_chi1p5_HTZT'
p2457
(dp2458
g5
(lp2459
sg7
(lp2460
sg9
(lp2461
sg11
(lp2462
sg13
(lp2463
ssS'Suu8_chi1p5_WBZT'
p2464
(dp2465
g5
(lp2466
sg7
(lp2467
sg9
(lp2468
sg11
(lp2469
sg13
(lp2470
ssS'Suu7_chi1_ZTZT'
p2471
(dp2472
g5
(lp2473
sg7
(lp2474
sg9
(lp2475
sg11
(lp2476
sg13
(lp2477
ssS'Suu8_chi1_HTHT'
p2478
(dp2479
g5
(lp2480
sg7
(lp2481
sg9
(lp2482
sg11
(lp2483
sg13
(lp2484
ssS'Suu7_chi2_HTZT'
p2485
(dp2486
g5
(lp2487
sg7
(lp2488
sg9
(lp2489
sg11
(lp2490
sg13
(lp2491
ssS'Suu7_chi1p5_WBZT'
p2492
(dp2493
g5
(lp2494
sg7
(lp2495
sg9
(lp2496
sg11
(lp2497
sg13
(lp2498
ssS'Suu8_chi1_WBZT'
p2499
(dp2500
g5
(lp2501
sg7
(lp2502
sg9
(lp2503
sg11
(lp2504
sg13
(lp2505
ssS'Suu5_chi2_ZTZT'
p2506
(dp2507
g5
(lp2508
sg7
(lp2509
sg9
(lp2510
sg11
(lp2511
sg13
(lp2512
ssS'Suu8_chi2_ZTZT'
p2513
(dp2514
g5
(lp2515
sg7
(lp2516
sg9
(lp2517
sg11
(lp2518
sg13
(lp2519
ssS'Suu8_chi2p5_HTZT'
p2520
(dp2521
g5
(lp2522
sg7
(lp2523
sg9
(lp2524
sg11
(lp2525
sg13
(lp2526
ssS'Suu4_chi1p5_HTHT'
p2527
(dp2528
g5
(lp2529
sg7
(lp2530
sg9
(lp2531
sg11
(lp2532
sg13
(lp2533
ssS'Suu8_chi1_WBHT'
p2534
(dp2535
g5
(lp2536
sg7
(lp2537
sg9
(lp2538
sg11
(lp2539
sg13
(lp2540
ssS'Suu8_chi3_WBHT'
p2541
(dp2542
g5
(lp2543
sg7
(lp2544
sg9
(lp2545
sg11
(lp2546
sg13
(lp2547
ssS'Suu7_chi1_HTHT'
p2548
(dp2549
g5
(lp2550
sg7
(lp2551
sg9
(lp2552
sg11
(lp2553
sg13
(lp2554
ssS'Suu7_chi2p5_WBHT'
p2555
(dp2556
g5
(lp2557
sg7
(lp2558
sg9
(lp2559
sg11
(lp2560
sg13
(lp2561
ssS'Suu7_chi3_HTHT'
p2562
(dp2563
g5
(lp2564
sg7
(lp2565
sg9
(lp2566
sg11
(lp2567
sg13
(lp2568
ssS'Suu4_chi1_HTZT'
p2569
(dp2570
g5
(lp2571
sg7
(lp2572
sg9
(lp2573
sg11
(lp2574
sg13
(lp2575
ssS'Suu6_chi1_HTHT'
p2576
(dp2577
g5
(lp2578
sg7
(lp2579
sg9
(lp2580
sg11
(lp2581
sg13
(lp2582
ssS'Suu4_chi1_ZTZT'
p2583
(dp2584
g5
(lp2585
sg7
(lp2586
sg9
(lp2587
sg11
(lp2588
sg13
(lp2589
ssS'Suu5_chi1p5_HTZT'
p2590
(dp2591
g5
(lp2592
sg7
(lp2593
sg9
(lp2594
sg11
(lp2595
sg13
(lp2596
ssS'Suu5_chi1p5_WBHT'
p2597
(dp2598
g5
(lp2599
sg7
(lp2600
sg9
(lp2601
sg11
(lp2602
sg13
(lp2603
ssS'Suu7_chi3_WBZT'
p2604
(dp2605
g5
(lp2606
sg7
(lp2607
sg9
(lp2608
sg11
(lp2609
sg13
(lp2610
ssS'Suu6_chi2_HTHT'
p2611
(dp2612
g5
(lp2613
sg7
(lp2614
sg9
(lp2615
sg11
(lp2616
sg13
(lp2617
ssS'Suu5_chi1p5_ZTZT'
p2618
(dp2619
g5
(lp2620
sg7
(lp2621
sg9
(lp2622
sg11
(lp2623
sg13
(lp2624
ssS'Suu6_chi1p5_ZTZT'
p2625
(dp2626
g5
(lp2627
sg7
(lp2628
sg9
(lp2629
sg11
(lp2630
sg13
(lp2631
ssS'Suu4_chi1p5_ZTZT'
p2632
(dp2633
g5
(lp2634
sg7
(lp2635
sg9
(lp2636
sg11
(lp2637
sg13
(lp2638
ssS'Suu8_chi2_HTZT'
p2639
(dp2640
g5
(lp2641
sg7
(lp2642
sg9
(lp2643
sg11
(lp2644
sg13
(lp2645
ssS'Suu8_chi3_HTZT'
p2646
(dp2647
g5
(lp2648
sg7
(lp2649
sg9
(lp2650
sg11
(lp2651
sg13
(lp2652
ssS'Suu6_chi2p5_ZTZT'
p2653
(dp2654
g5
(lp2655
sg7
(lp2656
sg9
(lp2657
sg11
(lp2658
sg13
(lp2659
ssS'Suu7_chi1_HTZT'
p2660
(dp2661
g5
(lp2662
sg7
(lp2663
sg9
(lp2664
sg11
(lp2665
sg13
(lp2666
ssS'Suu6_chi2p5_WBZT'
p2667
(dp2668
g5
(lp2669
sg7
(lp2670
sg9
(lp2671
sg11
(lp2672
sg13
(lp2673
ssS'Suu4_chi1p5_WBHT'
p2674
(dp2675
g5
(lp2676
sg7
(lp2677
sg9
(lp2678
sg11
(lp2679
sg13
(lp2680
ssS'Suu5_chi1p5_HTHT'
p2681
(dp2682
g5
(lp2683
sg7
(lp2684
sg9
(lp2685
sg11
(lp2686
sg13
(lp2687
ssS'Suu5_chi2_WBWB'
p2688
(dp2689
g5
(lp2690
sg7
(lp2691
sg9
(lp2692
sg11
(lp2693
sg13
(lp2694
ssS'Suu8_chi1_HTZT'
p2695
(dp2696
g5
(lp2697
sg7
(lp2698
sg9
(lp2699
sg11
(lp2700
sg13
(lp2701
ssS'Suu4_chi1_WBHT'
p2702
(dp2703
g5
(lp2704
sg7
(lp2705
sg9
(lp2706
sg11
(lp2707
sg13
(lp2708
ssS'Suu7_chi2p5_WBWB'
p2709
(dp2710
g5
(lp2711
sg7
(lp2712
sg9
(lp2713
sg11
(lp2714
sg13
(lp2715
ssS'Suu8_chi2_WBHT'
p2716
(dp2717
g5
(lp2718
sg7
(lp2719
sg9
(lp2720
sg11
(lp2721
sg13
(lp2722
ssS'Suu7_chi2p5_ZTZT'
p2723
(dp2724
g5
(lp2725
sg7
(lp2726
sg9
(lp2727
sg11
(lp2728
sg13
(lp2729
ssS'Suu5_chi1_WBZT'
p2730
(dp2731
g5
(lp2732
sg7
(lp2733
sg9
(lp2734
sg11
(lp2735
sg13
(lp2736
ssS'Suu5_chi1p5_WBWB'
p2737
(dp2738
g5
(lp2739
sg7
(lp2740
sg9
(lp2741
sg11
(lp2742
sg13
(lp2743
ssS'Suu8_chi1_ZTZT'
p2744
(dp2745
g5
(lp2746
sg7
(lp2747
sg9
(lp2748
sg11
(lp2749
sg13
(lp2750
ssS'Suu8_chi3_HTHT'
p2751
(dp2752
g5
(lp2753
sg7
(lp2754
sg9
(lp2755
sg11
(lp2756
sg13
(lp2757
ssS'Suu7_chi3_WBWB'
p2758
(dp2759
g5
(lp2760
sg7
(lp2761
sg9
(lp2762
sg11
(lp2763
sg13
(lp2764
ssS'Suu8_chi3_ZTZT'
p2765
(dp2766
g5
(lp2767
sg7
(lp2768
sg9
(lp2769
sg11
(lp2770
sg13
(lp2771
ssS'Suu6_chi2p5_HTZT'
p2772
(dp2773
g5
(lp2774
sg7
(lp2775
sg9
(lp2776
sg11
(lp2777
sg13
(lp2778
ssS'Suu7_chi1_WBWB'
p2779
(dp2780
g5
(lp2781
sg7
(lp2782
sg9
(lp2783
sg11
(lp2784
sg13
(lp2785
ssS'Suu7_chi2p5_WBZT'
p2786
(dp2787
g5
(lp2788
sg7
(lp2789
sg9
(lp2790
sg11
(lp2791
sg13
(lp2792
ssS'Suu7_chi1p5_HTHT'
p2793
(dp2794
g5
(lp2795
sg7
(lp2796
sg9
(lp2797
sg11
(lp2798
sg13
(lp2799
ssS'Suu5_chi1_HTZT'
p2800
(dp2801
g5
(lp2802
sg7
(lp2803
sg9
(lp2804
sg11
(lp2805
sg13
(lp2806
ssS'Suu6_chi1p5_HTZT'
p2807
(dp2808
g5
(lp2809
sg7
(lp2810
sg9
(lp2811
sg11
(lp2812
sg13
(lp2813
ssS'Suu8_chi2p5_WBZT'
p2814
(dp2815
g5
(lp2816
sg7
(lp2817
sg9
(lp2818
sg11
(lp2819
sg13
(lp2820
ssS'Suu5_chi1_WBHT'
p2821
(dp2822
g5
(lp2823
sg7
(lp2824
sg9
(lp2825
sg11
(lp2826
sg13
(lp2827
ssS'Suu7_chi1p5_WBWB'
p2828
(dp2829
g5
(lp2830
sg7
(lp2831
sg9
(lp2832
sg11
(lp2833
sg13
(lp2834
ssS'Suu8_chi1p5_HTHT'
p2835
(dp2836
g5
(lp2837
sg7
(lp2838
sg9
(lp2839
sg11
(lp2840
sg13
(lp2841
ssS'Suu4_chi1_WBZT'
p2842
(dp2843
g5
(lp2844
sg7
(lp2845
sg9
(lp2846
sg11
(lp2847
sg13
(lp2848
ssS'Suu6_chi2p5_HTHT'
p2849
(dp2850
g5
(lp2851
sg7
(lp2852
sg9
(lp2853
sg11
(lp2854
sg13
(lp2855
ssS'Suu5_chi2_HTHT'
p2856
(dp2857
g5
(lp2858
sg7
(lp2859
sg9
(lp2860
sg11
(lp2861
sg13
(lp2862
ssS'Suu6_chi1p5_WBZT'
p2863
(dp2864
g5
(lp2865
sg7
(lp2866
sg9
(lp2867
sg11
(lp2868
sg13
(lp2869
ssS'Suu8_chi1_WBWB'
p2870
(dp2871
g5
(lp2872
sg7
(lp2873
sg9
(lp2874
sg11
(lp2875
sg13
(lp2876
ssS'Suu6_chi1_WBWB'
p2877
(dp2878
g5
(lp2879
sg7
(lp2880
sg9
(lp2881
sg11
(lp2882
sg13
(lp2883
ssS'Suu8_chi2_WBWB'
p2884
(dp2885
g5
(lp2886
sg7
(lp2887
sg9
(lp2888
sg11
(lp2889
sg13
(lp2890
ssS'Suu6_chi2_ZTZT'
p2891
(dp2892
g5
(lp2893
sg7
(lp2894
sg9
(lp2895
sg11
(lp2896
sg13
(lp2897
ssS'Suu6_chi2p5_WBWB'
p2898
(dp2899
g5
(lp2900
sg7
(lp2901
sg9
(lp2902
sg11
(lp2903
sg13
(lp2904
ssS'Suu6_chi1_WBHT'
p2905
(dp2906
g5
(lp2907
sg7
(lp2908
sg9
(lp2909
sg11
(lp2910
sg13
(lp2911
ssS'Suu7_chi2p5_HTZT'
p2912
(dp2913
g5
(lp2914
sg7
(lp2915
sg9
(lp2916
sg11
(lp2917
sg13
(lp2918
ssS'Suu8_chi2p5_ZTZT'
p2919
(dp2920
g5
(lp2921
sg7
(lp2922
sg9
(lp2923
sg11
(lp2924
sg13
(lp2925
ssS'Suu5_chi2_WBHT'
p2926
(dp2927
g5
(lp2928
sg7
(lp2929
sg9
(lp2930
sg11
(lp2931
sg13
(lp2932
ssS'Suu8_chi2_HTHT'
p2933
(dp2934
g5
(lp2935
sg7
(lp2936
sg9
(lp2937
sg11
(lp2938
sg13
(lp2939
ssS'Suu7_chi2_HTHT'
p2940
(dp2941
g5
(lp2942
sg7
(lp2943
sg9
(lp2944
sg11
(lp2945
sg13
(lp2946
ssS'Suu7_chi2_WBZT'
p2947
(dp2948
g5
(lp2949
sg7
(lp2950
sg9
(lp2951
sg11
(lp2952
sg13
(lp2953
ssS'Suu4_chi1p5_WBZT'
p2954
(dp2955
g5
(lp2956
sg7
(lp2957
sg9
(lp2958
sg11
(lp2959
sg13
(lp2960
ssS'Suu8_chi1p5_HTZT'
p2961
(dp2962
g5
(lp2963
sg7
(lp2964
sg9
(lp2965
sg11
(lp2966
sg13
(lp2967
ssS'Suu7_chi1p5_WBHT'
p2968
(dp2969
g5
(lp2970
sg7
(lp2971
sg9
(lp2972
sg11
(lp2973
sg13
(lp2974
ssS'Suu4_chi1_HTHT'
p2975
(dp2976
g5
(lp2977
sg7
(lp2978
sg9
(lp2979
sg11
(lp2980
sg13
(lp2981
ssS'Suu7_chi2_WBHT'
p2982
(dp2983
g5
(lp2984
sg7
(lp2985
sg9
(lp2986
sg11
(lp2987
sg13
(lp2988
ssS'Suu6_chi1p5_HTHT'
p2989
(dp2990
g5
(lp2991
sg7
(lp2992
sg9
(lp2993
sg11
(lp2994
sg13
(lp2995
ssS'Suu6_chi1p5_WBHT'
p2996
(dp2997
g5
(lp2998
sg7
(lp2999
sg9
(lp3000
sg11
(lp3001
sg13
(lp3002
ssS'Suu7_chi2_WBWB'
p3003
(dp3004
g5
(lp3005
sg7
(lp3006
sg9
(lp3007
sg11
(lp3008
sg13
(lp3009
ssS'Suu8_chi2p5_WBHT'
p3010
(dp3011
g5
(lp3012
sg7
(lp3013
sg9
(lp3014
sg11
(lp3015
sg13
(lp3016
ssS'Suu7_chi1p5_HTZT'
p3017
(dp3018
g5
(lp3019
sg7
(lp3020
sg9
(lp3021
sg11
(lp3022
sg13
(lp3023
ssS'Suu4_chi1_WBWB'
p3024
(dp3025
g5
(lp3026
sg7
(lp3027
sg9
(lp3028
sg11
(lp3029
sg13
(lp3030
ssS'Suu5_chi2_HTZT'
p3031
(dp3032
g5
(lp3033
sg7
(lp3034
sg9
(lp3035
sg11
(lp3036
sg13
(lp3037
ssS'Suu5_chi1_HTHT'
p3038
(dp3039
g5
(lp3040
sg7
(lp3041
sg9
(lp3042
sg11
(lp3043
sg13
(lp3044
ssS'Suu8_chi2_WBZT'
p3045
(dp3046
g5
(lp3047
sg7
(lp3048
sg9
(lp3049
sg11
(lp3050
sg13
(lp3051
ssS'Suu5_chi1p5_WBZT'
p3052
(dp3053
g5
(lp3054
sg7
(lp3055
sg9
(lp3056
sg11
(lp3057
sg13
(lp3058
ssS'Suu5_chi1_ZTZT'
p3059
(dp3060
g5
(lp3061
sg7
(lp3062
sg9
(lp3063
sg11
(lp3064
sg13
(lp3065
ssS'Suu7_chi1_WBHT'
p3066
(dp3067
g5
(lp3068
sg7
(lp3069
sg9
(lp3070
sg11
(lp3071
sg13
(lp3072
ssS'Suu5_chi1_WBWB'
p3073
(dp3074
g5
(lp3075
sg7
(lp3076
sg9
(lp3077
sg11
(lp3078
sg13
(lp3079
ssS'Suu5_chi2_WBZT'
p3080
(dp3081
g5
(lp3082
sg7
(lp3083
sg9
(lp3084
sg11
(lp3085
sg13
(lp3086
ssS'Suu7_chi2p5_HTHT'
p3087
(dp3088
g5
(lp3089
sg7
(lp3090
sg9
(lp3091
sg11
(lp3092
sg13
(lp3093
ssS'Suu7_chi2_ZTZT'
p3094
(dp3095
g5
(lp3096
sg7
(lp3097
sg9
(lp3098
sg11
(lp3099
sg13
(lp3100
ssS'Suu6_chi1_HTZT'
p3101
(dp3102
g5
(lp3103
sg7
(lp3104
sg9
(lp3105
sg11
(lp3106
sg13
(lp3107
ssS'Suu8_chi1p5_ZTZT'
p3108
(dp3109
g5
(lp3110
sg7
(lp3111
sg9
(lp3112
sg11
(lp3113
sg13
(lp3114
ssS'Suu7_chi3_HTZT'
p3115
(dp3116
g5
(lp3117
sg7
(lp3118
sg9
(lp3119
sg11
(lp3120
sg13
(lp3121
ssS'Suu7_chi3_ZTZT'
p3122
(dp3123
g5
(lp3124
sg7
(lp3125
sg9
(lp3126
sg11
(lp3127
sg13
(lp3128
ssS'Suu6_chi2p5_WBHT'
p3129
(dp3130
g5
(lp3131
sg7
(lp3132
sg9
(lp3133
sg11
(lp3134
sg13
(lp3135
ssS'Suu7_chi1p5_ZTZT'
p3136
(dp3137
g5
(lp3138
sg7
(lp3139
sg9
(lp3140
sg11
(lp3141
sg13
(lp3142
ssS'Suu8_chi3_WBZT'
p3143
(dp3144
g5
(lp3145
sg7
(lp3146
sg9
(lp3147
sg11
(lp3148
sg13
(lp3149
ssS'Suu6_chi1_ZTZT'
p3150
(dp3151
g5
(lp3152
sg7
(lp3153
sg9
(lp3154
sg11
(lp3155
sg13
(lp3156
ssS'Suu8_chi1p5_WBWB'
p3157
(dp3158
g5
(lp3159
sg7
(lp3160
sg9
(lp3161
sg11
(lp3162
sg13
(lp3163
ssS'Suu6_chi2_WBZT'
p3164
(dp3165
g5
(lp3166
sg7
(lp3167
sg9
(lp3168
sg11
(lp3169
sg13
(lp3170
ssS'Suu8_chi1p5_WBHT'
p3171
(dp3172
g5
(lp3173
sg7
(lp3174
sg9
(lp3175
sg11
(lp3176
sg13
(lp3177
sss.